(iprojectdata
Project
p0
(dp1
S'proxy_data'
p2
(imiscdataobjects
ProjectProxyEditingData
p3
(dp4
S'create_rules'
p5
NsS'size'
p6
I1
sS'proxy_mode'
p7
I0
sS'encoding'
p8
I0
sbsS'media_log_groups'
p9
(lp10
sS'next_bin_number'
p11
I2
sS'media_files'
p12
(dp13
I0
(iprojectdata
MediaFile
p14
(dp15
S'has_proxy_file'
p16
I00
sS'info'
p17
(dp18
S'progressive'
p19
I00
sS'vcodec'
p20
S'H.264 / AVC / MPEG-4 AVC / MPEG-4 part 10'
p21
sS'top_field_first'
p22
I00
sS'length'
p23
I997
sS'height'
p24
I568
sS'channels'
p25
I1
sS'width'
p26
I746
sS'fps_den'
p27
F1.0
sS'frequency'
p28
I44100
sS'fps_num'
p29
F25.0
sS'acodec'
p30
S'Vorbis'
p31
ssS'mark_out'
p32
I-1
sS'name'
p33
S'1_intro.mkv'
p34
sS'icon_path'
p35
S'/home/lorry/.cache/flowblade/thumbnails/6ace9fcc9c158a2e7dd28510452c025d.png'
p36
sS'second_file_path'
p37
NsS'mark_in'
p38
I-1
sS'length'
p39
I997
sS'is_proxy_file'
p40
I00
sS'ttl'
p41
NsS'current_frame'
p42
I0
sS'path'
p43
S'/home/lorry/data/video/techtinkering/2019/hand_assembling_to_machine_code_vic20/video/1_intro.mkv'
p44
sS'type'
p45
I1
sS'id'
p46
I0
sbsI1
(iprojectdata
MediaFile
p47
(dp48
g16
I00
sg17
(dp49
g19
I00
sg20
S'H.264 / AVC / MPEG-4 AVC / MPEG-4 part 10'
p50
sg22
I00
sg23
I3809
sg24
I568
sg25
I1
sg26
I746
sg27
F1.0
sg28
I44100
sg29
F25.0
sg30
S'Vorbis'
p51
ssg32
I-1
sg33
S'3_basic_data.mkv'
p52
sg35
S'/home/lorry/.cache/flowblade/thumbnails/94a3745fd9d1eaf017d83f8fe2ef963e.png'
p53
sg37
Nsg38
I-1
sg39
I3809
sg40
I00
sg41
Nsg42
I0
sg43
S'/home/lorry/data/video/techtinkering/2019/hand_assembling_to_machine_code_vic20/video/3_basic_data.mkv'
p54
sg45
I1
sg46
I1
sbsI2
(iprojectdata
MediaFile
p55
(dp56
g16
I00
sg17
(dp57
g19
I00
sg20
S'H.264 / AVC / MPEG-4 AVC / MPEG-4 part 10'
p58
sg22
I00
sg23
I17700
sg24
I568
sg25
I1
sg26
I746
sg27
F1.0
sg28
I44100
sg29
F25.0
sg30
S'Vorbis'
p59
ssg32
I-1
sg33
S'4_hex_loader.mkv'
p60
sg35
S'/home/lorry/.cache/flowblade/thumbnails/6e344fb0a64a29217a56c2b132e01bd3.png'
p61
sg37
Nsg38
I-1
sg39
I17700
sg40
I00
sg41
Nsg42
I0
sg43
S'/home/lorry/data/video/techtinkering/2019/hand_assembling_to_machine_code_vic20/video/4_hex_loader.mkv'
p62
sg45
I1
sg46
I2
sbsI8
(iprojectdata
MediaFile
p63
(dp64
g16
I00
sg17
Nsg32
I-1
sg33
S'1 intro_clean.ogg'
p65
sg35
S'/usr/share/pyshared/Flowblade/res/darktheme/audio_file.png'
p66
sg46
I8
sg38
I-1
sg39
I479
sg40
I00
sg41
Nsg42
I0
sg43
S'/home/lorry/data/video/techtinkering/2019/hand_assembling_to_machine_code_vic20/audio/1 intro_clean.ogg'
p67
sg45
I2
sg37
NsbsI9
(iprojectdata
MediaFile
p68
(dp69
g16
I00
sg17
Nsg32
I-1
sg33
S'2 hand assemble_clean.ogg'
p70
sg35
S'/usr/share/pyshared/Flowblade/res/darktheme/audio_file.png'
p71
sg46
I9
sg38
I-1
sg39
I3921
sg40
I00
sg41
Nsg42
I0
sg43
S'/home/lorry/data/video/techtinkering/2019/hand_assembling_to_machine_code_vic20/audio/2 hand assemble_clean.ogg'
p72
sg45
I2
sg37
NsbsI10
(iprojectdata
MediaFile
p73
(dp74
g16
I00
sg17
Nsg32
I-1
sg33
S'3 basic data_clean.ogg'
p75
sg35
S'/usr/share/pyshared/Flowblade/res/darktheme/audio_file.png'
p76
sg46
I10
sg38
I-1
sg39
I3682
sg40
I00
sg41
Nsg42
I0
sg43
S'/home/lorry/data/video/techtinkering/2019/hand_assembling_to_machine_code_vic20/audio/3 basic data_clean.ogg'
p77
sg45
I2
sg37
NsbsI11
(iprojectdata
MediaFile
p78
(dp79
g16
I00
sg17
Nsg32
I-1
sg33
S'4 hex loader_clean.ogg'
p80
sg35
S'/usr/share/pyshared/Flowblade/res/darktheme/audio_file.png'
p81
sg46
I11
sg38
I-1
sg39
I7314
sg40
I00
sg41
Nsg42
I0
sg43
S'/home/lorry/data/video/techtinkering/2019/hand_assembling_to_machine_code_vic20/audio/4 hex loader_clean.ogg'
p82
sg45
I2
sg37
NsbsI12
(iprojectdata
MediaFile
p83
(dp84
g16
I00
sg17
(dp85
S'progressive'
p86
I00
sS'vcodec'
p87
NsS'top_field_first'
p88
I00
sS'fps_den'
p89
F0.0
sS'height'
p90
I0
sS'channels'
p91
I0
sS'width'
p92
I0
sg39
I15000
sS'frequency'
p93
I0
sS'fps_num'
p94
F0.0
sS'acodec'
p95
Nssg32
I7624
sg33
S'code1.png'
p96
sg35
S'/home/lorry/.cache/flowblade/thumbnails/fade607a70a65ba6e7095392d0813187.png'
p97
sg46
I12
sg38
I7375
sg39
I250
sg40
I00
sg41
Nsg42
I0
sg43
S'/home/lorry/data/video/techtinkering/2019/hand_assembling_to_machine_code_vic20/images/code1.png'
p98
sg45
I3
sg37
NsbsI13
(iprojectdata
MediaFile
p99
(dp100
g16
I00
sg17
(dp101
g86
I00
sg87
Nsg88
I00
sg89
F0.0
sg90
I0
sg91
I0
sg92
I0
sg39
I15000
sg93
I0
sg94
F0.0
sg95
Nssg32
I7624
sg33
S'code2.png'
p102
sg35
S'/home/lorry/.cache/flowblade/thumbnails/1936e0f0c9823f1bdcaf00bd8de0a366.png'
p103
sg46
I13
sg38
I7375
sg39
I250
sg40
I00
sg41
Nsg42
I0
sg43
S'/home/lorry/data/video/techtinkering/2019/hand_assembling_to_machine_code_vic20/images/code2.png'
p104
sg45
I3
sg37
NsbsI14
(iprojectdata
MediaFile
p105
(dp106
g16
I00
sg17
(dp107
g86
I00
sg87
Nsg88
I00
sg89
F0.0
sg90
I0
sg91
I0
sg92
I0
sg39
I15000
sg93
I0
sg94
F0.0
sg95
Nssg32
I7624
sg33
S'machine_language_coding_sheet.png'
p108
sg35
S'/home/lorry/.cache/flowblade/thumbnails/f52f11bc4721691e4330956fba5e917a.png'
p109
sg46
I14
sg38
I7375
sg39
I250
sg40
I00
sg41
Nsg42
I0
sg43
S'/home/lorry/data/video/techtinkering/2019/hand_assembling_to_machine_code_vic20/images/machine_language_coding_sheet.png'
p110
sg45
I3
sg37
NsbsI15
(iprojectdata
MediaFile
p111
(dp112
g16
I00
sg17
(dp113
g86
I00
sg87
Nsg88
I00
sg89
F0.0
sg90
I0
sg91
I0
sg92
I0
sg39
I15000
sg93
I0
sg94
F0.0
sg95
Nssg32
I7624
sg33
S'youtube_endscreen.png'
p114
sg35
S'/home/lorry/.cache/flowblade/thumbnails/f22cafd4a1092cf9c513a9b074449238.png'
p115
sg46
I15
sg38
I7375
sg39
I250
sg40
I00
sg41
Nsg42
I0
sg43
S'/home/lorry/data/video/techtinkering/2019/hand_assembling_to_machine_code_vic20/images/youtube_endscreen.png'
p116
sg45
I3
sg37
NsbsI16
(iprojectdata
MediaFile
p117
(dp118
g16
I00
sg17
(dp119
g86
I00
sg87
Nsg88
I00
sg89
F0.0
sg90
I0
sg91
I0
sg92
I0
sg39
I15000
sg93
I0
sg94
F0.0
sg95
Nssg32
I7624
sg33
S'youtube_start_subscribe_black.png'
p120
sg35
S'/home/lorry/.cache/flowblade/thumbnails/d05ec5700b1811251ac3939bd912146e.png'
p121
sg46
I16
sg38
I7375
sg39
I250
sg40
I00
sg41
Nsg42
I0
sg43
S'/home/lorry/data/video/techtinkering/2019/hand_assembling_to_machine_code_vic20/images/youtube_start_subscribe_black.png'
p122
sg45
I3
sg37
NsbsI17
(iprojectdata
MediaFile
p123
(dp124
g16
I00
sg17
(dp125
g86
I00
sg87
Nsg88
I00
sg89
F0.0
sg90
I0
sg91
I0
sg92
I0
sg39
I15000
sg93
I0
sg94
F0.0
sg95
Nssg32
I7624
sg33
S'6502_machine_language_hex_codes_table_lda_visible.png'
p126
sg35
S'/home/lorry/.cache/flowblade/thumbnails/d36dc22cffe997948ed47dc9907dfd8f.png'
p127
sg46
I17
sg38
I7375
sg39
I250
sg40
I00
sg41
Nsg42
I0
sg43
S'/home/lorry/data/video/techtinkering/2019/hand_assembling_to_machine_code_vic20/images/6502_machine_language_hex_codes_table_lda_visible.png'
p128
sg45
I3
sg37
NsbsI18
(iprojectdata
MediaFile
p129
(dp130
g16
I00
sg17
(dp131
g86
I00
sg87
Nsg88
I00
sg89
F0.0
sg90
I0
sg91
I0
sg92
I0
sg39
I15000
sg93
I0
sg94
F0.0
sg95
Nssg32
I7624
sg33
S'6502_machine_language_hex_codes_table_top.png'
p132
sg35
S'/home/lorry/.cache/flowblade/thumbnails/4f7ab3a4e2b21bf5578f0c2dfda2f098.png'
p133
sg46
I18
sg38
I7375
sg39
I250
sg40
I00
sg41
Nsg42
I0
sg43
S'/home/lorry/data/video/techtinkering/2019/hand_assembling_to_machine_code_vic20/images/6502_machine_language_hex_codes_table_top.png'
p134
sg45
I3
sg37
NsbsI19
(iprojectdata
MediaFile
p135
(dp136
g16
I00
sg17
Nsg32
I-1
sg33
S'5 end_clean.ogg'
p137
sg35
S'/usr/share/pyshared/Flowblade/res/darktheme/audio_file.png'
p138
sg46
I19
sg38
I-1
sg39
I494
sg40
I00
sg41
Nsg42
I0
sg43
S'/home/lorry/data/video/techtinkering/2019/hand_assembling_to_machine_code_vic20/audio/5 end_clean.ogg'
p139
sg45
I2
sg37
NsbssS'c_bin'
p140
(iprojectdata
Bin
p141
(dp142
g33
Vbin_1
p143
sS'file_ids'
p144
(lp145
I0
aI1
aI2
aI8
aI9
aI10
aI11
aI12
aI13
aI14
aI15
aI16
aI17
aI18
aI19
asbsS'last_save_path'
p146
S'/home/lorry/data/video/techtinkering/2019/hand_assembling_to_machine_code_vic20/hand_assembling_to_machine_code.flb'
p147
sS'sequences'
p148
(lp149
(isequence
Sequence
p150
(dp151
S'compositors'
p152
(lp153
(imlttransitions
CompositorObject
p154
(dp155
S'planted'
p156
I01
sS'compositor_index'
p157
I-1
sS'transition'
p158
(imlttransitions
CompositorTransition
p159
(dp160
g17
(imlttransitions
CompositorTransitionInfo
p161
(dp162
S'xml'
p163
V<compositortransition mlt_service="frei0r.cairoblend">\u000a        <name>##blend</name>\u000a        <property args="editor=combobox exptype=default_transition displayname=Blend!Mode cbopts=Normal:normal,Add:add,Saturate:saturate,Multiply:multiply,Screen:screen,Overlay:overlay,Darken:darken,Lighten:lighten,ColorDodge:colordodge,Colorburn:colorburn,Hardlight:hardlight,Softlight:softlight,Difference:difference,Exclusion:exclusion,HSLHue:hslhue,HSLSaturation:hslsaturation,HSLColor:hslcolor,HSLLuminosity:hslluminosity" name="1">normal</property>\u000a        <property args="editor=keyframe_editor_clip_fade range_in=0,100 range_out=0,1 exptype=keyframe_hcs_transition displayname=Opacity" name="0">0=1.0</property>\u000a        <property args="editor=no_editor" name="automatic">1</property>\u000a        <property args="editor=no_editor" name="force_track">0</property>\u000a    </compositortransition>
p164
sg33
V##blend
p165
sS'property_args'
p166
(dp167
V1
p168
Veditor=combobox exptype=default_transition displayname=Blend!Mode cbopts=Normal:normal,Add:add,Saturate:saturate,Multiply:multiply,Screen:screen,Overlay:overlay,Darken:darken,Lighten:lighten,ColorDodge:colordodge,Colorburn:colorburn,Hardlight:hardlight,Softlight:softlight,Difference:difference,Exclusion:exclusion,HSLHue:hslhue,HSLSaturation:hslsaturation,HSLColor:hslcolor,HSLLuminosity:hslluminosity
p169
sV0
p170
Veditor=keyframe_editor_clip_fade range_in=0,100 range_out=0,1 exptype=keyframe_hcs_transition displayname=Opacity
p171
sVforce_track
p172
Veditor=no_editor
p173
sVautomatic
p174
Veditor=no_editor
p175
ssS'auto_fade_compositor'
p176
I00
sS'mlt_service_id'
p177
Vfrei0r.cairoblend
p178
sS'extra_editors'
p179
(lp180
sS'properties'
p181
(lp182
(g168
Vnormal
p183
I2
tp184
a(g170
V0=1.0
p185
I2
tp186
a(g174
V1
p187
I0
tp188
a(g172
V0
p189
I0
tp190
asbsS'b_track'
p191
I6
sg181
(lp192
(g168
g183
I2
tp193
a(S'0'
p194
S'0=1.0'
p195
I2
tp196
ag188
ag190
asS'a_track'
p197
I5
sS'mlt_transition'
p198
Nsbsg33
VBlend
p199
sS'type_id'
p200
S'##blend'
p201
sS'selected'
p202
I00
sS'obey_autofollow'
p203
I01
sS'clip_in'
p204
I321
sS'origin_clip_id'
p205
I522
sS'clip_out'
p206
I570
sS'destroy_id'
p207
S'/\xc2\x08\xbc\xdam"B\xd2iT$\xa2f\nl'
p208
sbasS'master_audio_pan'
p209
I-99
sS'watermark_file_path'
p210
NsS'tracks'
p211
(lp212
ccopy_reg
_reconstructor
p213
(cmlt
Playlist
p214
c__builtin__
object
p215
Ntp216
Rp217
(dp218
S'audio_gain'
p219
F1.0
sS'edit_freedom'
p220
I0
sS'is_sync_track'
p221
I00
sg90
I50
sS'clips'
p222
(lp223
g213
(cmlt
Producer
p224
g215
Ntp225
Rp226
(dp227
S'create_data'
p228
(ipatternproducer
BinColorClip
p229
(dp230
g16
I00
sg32
I-1
sg33
S'black_bg'
p231
sS'patter_producer_type'
p232
I1
sS'gdk_color_str'
p233
S'#000000000000'
p234
sg46
I-1
sg38
I-1
sg39
I15000
sg40
I00
sg45
I5
sg37
NsS'icon'
p235
NsbsS'is_blanck_clip'
p236
I00
sS'color'
p237
Nsg204
I0
sS'sync_data'
p238
NsS'filters'
p239
(lp240
sg43
S''
p241
sS'mute_filter'
p242
Nsg46
I8
sS'waveform_data'
p243
Nsg33
g231
sg202
I00
sS'markers'
p244
(lp245
sS'stream_indexes'
p246
Nsg206
I0
sS'media_type'
p247
I5
sg45
S'Mlt__Producer'
p248
sbasS'audio_pan'
p249
I-99
sS'mute_state'
p250
I0
sS'active'
p251
I01
sg45
I1
sg46
I0
sbag213
(g214
g215
Ntp252
Rp253
(dp254
g219
F1.0
sg220
I0
sg221
I00
sg90
I25
sg222
(lp255
sg249
I-99
sg250
I1
sg251
I01
sg45
I2
sg46
I1
sbag213
(g214
g215
Ntp256
Rp257
(dp258
g219
F1.0
sg220
I0
sg221
I00
sg90
I25
sg222
(lp259
sg249
I-99
sg250
I1
sg251
I01
sg45
I2
sg46
I2
sbag213
(g214
g215
Ntp260
Rp261
(dp262
g219
F1.0
sg220
I0
sg221
I00
sg90
I25
sg222
(lp263
sg249
I-99
sg250
I1
sg251
I01
sg45
I2
sg46
I3
sbag213
(g214
g215
Ntp264
Rp265
(dp266
g219
F1.0
sg220
I0
sg221
I00
sg90
I25
sg222
(lp267
g213
(g224
g215
Ntp268
Rp269
(dp270
g236
I00
sg32
I478
sg237
Nsg204
I0
sg238
Nsg239
(lp271
sg41
Nsg43
g67
sg242
Nsg46
I29
sg243
Nsg33
g65
sg202
I00
sg244
(lp272
sg246
Nsg38
I0
sg206
I478
sg247
I2
sg45
g248
sbag213
(g224
g215
Ntp273
Rp274
(dp275
g236
I01
sg243
Nsg202
I00
sg244
(lp276
sg246
Nsg237
Nsg242
Nsg238
Nsg239
(lp277
sg206
I9
sg204
I0
sg45
g248
sg46
I893
sbag213
(g224
g215
Ntp278
Rp279
(dp280
g236
I00
sg32
I3920
sg237
Nsg204
I0
sg238
Nsg239
(lp281
sg41
Nsg43
g72
sg242
Nsg46
I31
sg243
Nsg33
g70
sg202
I00
sg244
(lp282
sg246
Nsg38
I0
sg206
I235
sg247
I2
sg45
g248
sbag213
(g224
g215
Ntp283
Rp284
(dp285
g236
I00
sg237
Nsg204
I236
sg238
Nsg239
(lp286
sg41
Nsg43
g72
sg242
Nsg46
I40
sg243
Nsg33
g70
sg202
I00
sg244
(lp287
sg246
Nsg206
I611
sg247
I2
sg45
g248
sbag213
(g224
g215
Ntp288
Rp289
(dp290
g236
I00
sg237
Nsg204
I612
sg238
Nsg239
(lp291
sg41
Nsg43
g72
sg242
Nsg46
I50
sg243
Nsg33
g70
sg202
I00
sg244
(lp292
sg246
Nsg206
I982
sg247
I2
sg45
g248
sbag213
(g224
g215
Ntp293
Rp294
(dp295
g236
I00
sg237
Nsg204
I1009
sg238
Nsg239
(lp296
sg41
Nsg43
g72
sg242
Nsg46
I92
sg243
Nsg33
g70
sg202
I00
sg244
(lp297
sg246
Nsg206
I3815
sg247
I2
sg45
g248
sbag213
(g224
g215
Ntp298
Rp299
(dp300
g236
I00
sg237
Nsg204
I3848
sg238
Nsg239
(lp301
sg41
Nsg43
g72
sg242
Nsg46
I171
sg243
Nsg33
g70
sg202
I00
sg244
(lp302
sg246
Nsg206
I3920
sg247
I2
sg45
g248
sbag213
(g224
g215
Ntp303
Rp304
(dp305
g236
I01
sg243
Nsg202
I00
sg244
(lp306
sg246
Nsg237
Nsg242
Nsg238
Nsg239
(lp307
sg206
I10
sg204
I0
sg45
g248
sg46
I894
sbag213
(g224
g215
Ntp308
Rp309
(dp310
g236
I00
sg32
I3681
sg237
Nsg204
I0
sg238
Nsg239
(lp311
sg41
Nsg43
g77
sg242
Nsg46
I202
sg243
Nsg33
g75
sg202
I00
sg244
(lp312
sg246
Nsg38
I0
sg206
I2512
sg247
I2
sg45
g248
sbag213
(g224
g215
Ntp313
Rp314
(dp315
g236
I00
sg237
Nsg204
I2625
sg238
Nsg239
(lp316
sg41
Nsg43
g77
sg242
Nsg46
I211
sg243
Nsg33
g75
sg202
I00
sg244
(lp317
sg246
Nsg206
I3681
sg247
I2
sg45
g248
sbag213
(g224
g215
Ntp318
Rp319
(dp320
g236
I01
sg243
Nsg202
I00
sg244
(lp321
sg246
Nsg237
Nsg242
Nsg238
Nsg239
(lp322
sg206
I12
sg204
I0
sg45
g248
sg46
I895
sbag213
(g224
g215
Ntp323
Rp324
(dp325
g236
I00
sg32
I7313
sg237
Nsg204
I0
sg238
Nsg239
(lp326
sg41
Nsg43
g82
sg242
Nsg46
I243
sg243
Nsg33
g80
sg202
I00
sg244
(lp327
sg246
Nsg38
I0
sg206
I1208
sg247
I2
sg45
g248
sbag213
(g224
g215
Ntp328
Rp329
(dp330
g236
I00
sg237
Nsg204
I1243
sg238
Nsg239
(lp331
sg41
Nsg43
g82
sg242
Nsg46
I546
sg243
Nsg33
g80
sg202
I00
sg244
(lp332
sg246
Nsg206
I1369
sg247
I2
sg45
g248
sbag213
(g224
g215
Ntp333
Rp334
(dp335
g236
I00
sg237
Nsg204
I1393
sg238
Nsg239
(lp336
sg41
Nsg43
g82
sg242
Nsg46
I568
sg243
Nsg33
g80
sg202
I00
sg244
(lp337
sg246
Nsg206
I1458
sg247
I2
sg45
g248
sbag213
(g224
g215
Ntp338
Rp339
(dp340
g236
I00
sg237
Nsg204
I1487
sg238
Nsg239
(lp341
sg41
Nsg43
g82
sg242
Nsg46
I614
sg243
Nsg33
g80
sg202
I00
sg244
(lp342
sg246
Nsg206
I1772
sg247
I2
sg45
g248
sbag213
(g224
g215
Ntp343
Rp344
(dp345
g236
I00
sg237
Nsg204
I2732
sg238
Nsg239
(lp346
sg41
Nsg43
g82
sg242
Nsg46
I284
sg243
Nsg33
g80
sg202
I00
sg244
(lp347
sg246
Nsg206
I3378
sg247
I2
sg45
g248
sbag213
(g224
g215
Ntp348
Rp349
(dp350
g236
I00
sg237
Nsg204
I3526
sg238
Nsg239
(lp351
sg41
Nsg43
g82
sg242
Nsg46
I319
sg243
Nsg33
g80
sg202
I00
sg244
(lp352
sg246
Nsg206
I3951
sg247
I2
sg45
g248
sbag213
(g224
g215
Ntp353
Rp354
(dp355
g236
I00
sg237
Nsg204
I3984
sg238
Nsg239
(lp356
sg41
Nsg43
g82
sg242
Nsg46
I636
sg243
Nsg33
g80
sg202
I00
sg244
(lp357
sg246
Nsg206
I4132
sg247
I2
sg45
g248
sbag213
(g224
g215
Ntp358
Rp359
(dp360
g236
I00
sg237
Nsg204
I4196
sg238
Nsg239
(lp361
sg41
Nsg43
g82
sg242
Nsg46
I337
sg243
Nsg33
g80
sg202
I00
sg244
(lp362
sg246
Nsg206
I4394
sg247
I2
sg45
g248
sbag213
(g224
g215
Ntp363
Rp364
(dp365
g236
I00
sg237
Nsg204
I4420
sg238
Nsg239
(lp366
sg41
Nsg43
g82
sg242
Nsg46
I670
sg243
Nsg33
g80
sg202
I00
sg244
(lp367
sg246
Nsg206
I4983
sg247
I2
sg45
g248
sbag213
(g224
g215
Ntp368
Rp369
(dp370
g236
I00
sg237
Nsg204
I5336
sg238
Nsg239
(lp371
sg41
Nsg43
g82
sg242
Nsg46
I393
sg243
Nsg33
g80
sg202
I00
sg244
(lp372
sg246
Nsg206
I5406
sg247
I2
sg45
g248
sbag213
(g224
g215
Ntp373
Rp374
(dp375
g236
I00
sg237
Nsg204
I5477
sg238
Nsg239
(lp376
sg41
Nsg43
g82
sg242
Nsg46
I429
sg243
Nsg33
g80
sg202
I00
sg244
(lp377
sg246
Nsg206
I5750
sg247
I2
sg45
g248
sbag213
(g224
g215
Ntp378
Rp379
(dp380
g236
I00
sg237
Nsg204
I5778
sg238
Nsg239
(lp381
sg41
Nsg43
g82
sg242
Nsg46
I467
sg243
Nsg33
g80
sg202
I00
sg244
(lp382
sg246
Nsg206
I5831
sg247
I2
sg45
g248
sbag213
(g224
g215
Ntp383
Rp384
(dp385
g236
I00
sg237
Nsg204
I5853
sg238
Nsg239
(lp386
sg41
Nsg43
g82
sg242
Nsg46
I716
sg243
Nsg33
g80
sg202
I00
sg244
(lp387
sg246
Nsg206
I5928
sg247
I2
sg45
g248
sbag213
(g224
g215
Ntp388
Rp389
(dp390
g236
I00
sg237
Nsg204
I5985
sg238
Nsg239
(lp391
sg41
Nsg43
g82
sg242
Nsg46
I495
sg243
Nsg33
g80
sg202
I00
sg244
(lp392
sg246
Nsg206
I6059
sg247
I2
sg45
g248
sbag213
(g224
g215
Ntp393
Rp394
(dp395
g236
I00
sg237
Nsg204
I6099
sg238
Nsg239
(lp396
sg41
Nsg43
g82
sg242
Nsg46
I750
sg243
Nsg33
g80
sg202
I00
sg244
(lp397
sg246
Nsg206
I7313
sg247
I2
sg45
g248
sbag213
(g224
g215
Ntp398
Rp399
(dp400
g236
I01
sg243
Nsg202
I00
sg244
(lp401
sg246
Nsg237
Nsg242
Nsg238
Nsg239
(lp402
sg206
I8
sg204
I0
sg45
g248
sg46
I896
sbag213
(g224
g215
Ntp403
Rp404
(dp405
g236
I00
sg32
I493
sg237
Nsg204
I0
sg238
Nsg239
(lp406
sg41
Nsg43
g139
sg242
Nsg46
I772
sg243
Nsg33
g137
sg202
I00
sg244
(lp407
sg246
Nsg38
I0
sg206
I493
sg247
I2
sg45
g248
sbasg249
I-99
sg250
I1
sg251
I01
sg45
I2
sg46
I4
sbag213
(g214
g215
Ntp408
Rp409
(dp410
g219
F1.0
sg220
I0
sg221
I00
sg90
I50
sg222
(lp411
g213
(g224
g215
Ntp412
Rp413
(dp414
g236
I00
sg32
I996
sg237
Nsg204
I0
sg238
Nsg239
(lp415
sg41
Nsg43
g44
sg242
Nsg46
I14
sg243
Nsg33
g34
sg202
I00
sg244
(lp416
sg246
Nsg38
I0
sg206
I724
sg247
I1
sg45
g248
sbag213
(g224
g215
Ntp417
Rp418
(dp419
g236
I00
sg237
Nsg204
I725
sg238
Nsg239
(lp420
sg41
Nsg43
g44
sg242
Nsg46
I46
sg243
Nsg33
S'1_intro'
p421
sg202
I00
sg244
(lp422
sg246
Nsg206
I996
sg247
I1
sg45
g248
sbag213
(g224
g215
Ntp423
Rp424
(dp425
g236
I00
sg237
Nsg204
I725
sg238
Nsg239
(lp426
sg41
Nsg43
g44
sg242
Nsg46
I43
sg243
Nsg33
g34
sg202
I00
sg244
(lp427
sg246
Nsg206
I828
sg247
I1
sg45
g248
sbag213
(g224
g215
Ntp428
Rp429
(dp430
g236
I00
sg32
I7624
sg237
Nsg204
I7375
sg238
Nsg239
(lp431
sg41
Nsg43
g110
sg242
Nsg46
I58
sg243
Nsg33
g108
sg202
I00
sg244
(lp432
sg246
Nsg38
I7375
sg206
I7624
sg247
I3
sg45
g248
sbag213
(g224
g215
Ntp433
Rp434
(dp435
g236
I00
sg32
I7624
sg237
Nsg204
I7375
sg238
Nsg239
(lp436
sg41
Nsg43
g98
sg242
Nsg46
I69
sg243
Nsg33
g96
sg202
I00
sg244
(lp437
sg246
Nsg38
I7375
sg206
I7495
sg247
I3
sg45
g248
sbag213
(g224
g215
Ntp438
Rp439
(dp440
g236
I00
sg237
Nsg204
I7522
sg238
Nsg239
(lp441
sg41
Nsg43
g98
sg242
Nsg46
I95
sg243
Nsg33
g96
sg202
I00
sg244
(lp442
sg246
Nsg206
I8081
sg247
I3
sg45
g248
sbag213
(g224
g215
Ntp443
Rp444
(dp445
g236
I00
sg32
I7624
sg237
Nsg204
I7375
sg238
Nsg239
(lp446
sg41
Nsg43
g134
sg242
Nsg46
I126
sg243
Nsg33
g132
sg202
I00
sg244
(lp447
sg246
Nsg38
I7375
sg206
I7638
sg247
I3
sg45
g248
sbag213
(g224
g215
Ntp448
Rp449
(dp450
g236
I00
sg32
I7624
sg237
Nsg204
I7375
sg238
Nsg239
(lp451
sg41
Nsg43
g128
sg242
Nsg46
I131
sg243
Nsg33
g126
sg202
I00
sg244
(lp452
sg246
Nsg38
I7375
sg206
I7595
sg247
I3
sg45
g248
sbag213
(g224
g215
Ntp453
Rp454
(dp455
g236
I00
sg32
I7624
sg237
Nsg204
I7375
sg238
Nsg239
(lp456
sg41
Nsg43
g104
sg242
Nsg46
I144
sg243
Nsg33
g102
sg202
I00
sg244
(lp457
sg246
Nsg38
I7375
sg206
I9220
sg247
I3
sg45
g248
sbag213
(g224
g215
Ntp458
Rp459
(dp460
g236
I00
sg32
I3808
sg237
Nsg204
I11
sg238
Nsg239
(lp461
sg41
Nsg43
g54
sg242
Nsg46
I189
sg243
Nsg33
g52
sg202
I00
sg244
(lp462
sg246
Nsg38
I0
sg206
I2523
sg247
I1
sg45
g248
sbag213
(g224
g215
Ntp463
Rp464
(dp465
g236
I00
sg237
Nsg204
I2636
sg238
Nsg239
(lp466
sg41
Nsg43
g54
sg242
Nsg46
I215
sg243
Nsg33
g52
sg202
I00
sg244
(lp467
sg246
Nsg206
I3705
sg247
I1
sg45
g248
sbag213
(g224
g215
Ntp468
Rp469
(dp470
g236
I00
sg32
I17699
sg237
Nsg204
I11
sg238
Nsg239
(lp471
sg41
Nsg43
g62
sg242
Nsg46
I253
sg243
Nsg33
g60
sg202
I00
sg244
(lp472
sg246
Nsg38
I0
sg206
I1219
sg247
I1
sg45
g248
sbag213
(g224
g215
Ntp473
Rp474
(dp475
g236
I00
sg237
Nsg204
I1254
sg238
Nsg239
(lp476
sg41
Nsg43
g62
sg242
Nsg46
I552
sg243
Nsg33
g60
sg202
I00
sg244
(lp477
sg246
Nsg206
I1380
sg247
I1
sg45
g248
sbag213
(g224
g215
Ntp478
Rp479
(dp480
g236
I00
sg237
Nsg204
I1404
sg238
Nsg239
(lp481
sg41
Nsg43
g62
sg242
Nsg46
I574
sg243
Nsg33
g60
sg202
I00
sg244
(lp482
sg246
Nsg206
I1469
sg247
I1
sg45
g248
sbag213
(g224
g215
Ntp483
Rp484
(dp485
g236
I00
sg237
Nsg204
I1498
sg238
Nsg239
(lp486
sg41
Nsg43
g62
sg242
Nsg46
I620
sg243
Nsg33
g60
sg202
I00
sg244
(lp487
sg246
Nsg206
I1768
sg247
I1
sg45
g248
sbag213
(g224
g215
Ntp488
Rp489
(dp490
g236
I00
sg237
NsS'creation_data'
p491
(I253
I289
I1798
I1768
I2757
I2727
I1
I4
S'#000000000000'
p492
tp493
sg204
I1
sg238
Nsg239
(lp494
sg41
Nsg43
S'/home/lorry/.local/share/flowblade/rendered_clips/3c95f47b4fa7c1441a6813be19ecb220.mp4'
p495
sg242
Nsg46
I304
sg243
Nsg33
S'3c95f47b4fa7c1441a6813be19ecb220'
p496
sg202
I00
sg244
(lp497
sg246
NsS'rendered_type'
p498
I1
sg206
I31
sg247
I1
sg45
g248
sbag213
(g224
g215
Ntp499
Rp500
(dp501
g236
I00
sg237
Nsg204
I2758
sg238
Nsg239
(lp502
sg41
Nsg43
g62
sg242
Nsg46
I289
sg243
Nsg33
g60
sg202
I00
sg244
(lp503
sg246
Nsg206
I3388
sg247
I1
sg45
g248
sbag213
(g224
g215
Ntp504
Rp505
(dp506
g236
I00
sg237
Nsg204
I3536
sg238
Nsg239
(lp507
sg41
Nsg43
g62
sg242
Nsg46
I324
sg243
Nsg33
g60
sg202
I00
sg244
(lp508
sg246
Nsg206
I3961
sg247
I1
sg45
g248
sbag213
(g224
g215
Ntp509
Rp510
(dp511
g236
I00
sg237
Nsg204
I3994
sg238
Nsg239
(lp512
sg41
Nsg43
g62
sg242
Nsg46
I642
sg243
Nsg33
g60
sg202
I00
sg244
(lp513
sg246
Nsg206
I4142
sg247
I1
sg45
g248
sbag213
(g224
g215
Ntp514
Rp515
(dp516
g236
I00
sg237
Nsg204
I4206
sg238
Nsg239
(lp517
sg41
Nsg43
g62
sg242
Nsg46
I342
sg243
Nsg33
g60
sg202
I00
sg244
(lp518
sg246
Nsg206
I4404
sg247
I1
sg45
g248
sbag213
(g224
g215
Ntp519
Rp520
(dp521
g236
I00
sg237
Nsg204
I4430
sg238
Nsg239
(lp522
sg41
Nsg43
g62
sg242
Nsg46
I676
sg243
Nsg33
g60
sg202
I00
sg244
(lp523
sg246
Nsg206
I4993
sg247
I1
sg45
g248
sbag213
(g224
g215
Ntp524
Rp525
(dp526
g236
I00
sg237
Nsg204
I5346
sg238
Nsg239
(lp527
sg41
Nsg43
g62
sg242
Nsg46
I398
sg243
Nsg33
g60
sg202
I00
sg244
(lp528
sg246
Nsg206
I5416
sg247
I1
sg45
g248
sbag213
(g224
g215
Ntp529
Rp530
(dp531
g236
I00
sg237
Nsg204
I5487
sg238
Nsg239
(lp532
sg41
Nsg43
g62
sg242
Nsg46
I434
sg243
Nsg33
g60
sg202
I00
sg244
(lp533
sg246
Nsg206
I5760
sg247
I1
sg45
g248
sbag213
(g224
g215
Ntp534
Rp535
(dp536
g236
I00
sg237
Nsg204
I5788
sg238
Nsg239
(lp537
sg41
Nsg43
g62
sg242
Nsg46
I472
sg243
Nsg33
g60
sg202
I00
sg244
(lp538
sg246
Nsg206
I5841
sg247
I1
sg45
g248
sbag213
(g224
g215
Ntp539
Rp540
(dp541
g236
I00
sg237
Nsg204
I5863
sg238
Nsg239
(lp542
sg41
Nsg43
g62
sg242
Nsg46
I722
sg243
Nsg33
g60
sg202
I00
sg244
(lp543
sg246
Nsg206
I5938
sg247
I1
sg45
g248
sbag213
(g224
g215
Ntp544
Rp545
(dp546
g236
I00
sg237
Nsg204
I5995
sg238
Nsg239
(lp547
sg41
Nsg43
g62
sg242
Nsg46
I500
sg243
Nsg33
g60
sg202
I00
sg244
(lp548
sg246
Nsg206
I6069
sg247
I1
sg45
g248
sbag213
(g224
g215
Ntp549
Rp550
(dp551
g236
I00
sg237
Nsg204
I6109
sg238
Nsg239
(lp552
sg41
Nsg43
g62
sg242
Nsg46
I756
sg243
Nsg33
g60
sg202
I00
sg244
(lp553
sg246
Nsg206
I7468
sg247
I1
sg45
g248
sbag213
(g224
g215
Ntp554
Rp555
(dp556
g236
I00
sg32
I7624
sg237
Nsg204
I7277
sg238
Nsg239
(lp557
sg41
Nsg43
g116
sg242
Nsg46
I780
sg243
Nsg33
g114
sg202
I00
sg244
(lp558
sg246
Nsg38
I7375
sg206
I7634
sg247
I3
sg45
g248
sbasg249
I-99
sg250
I0
sg251
I01
sg45
I1
sg46
I5
sbag213
(g214
g215
Ntp559
Rp560
(dp561
g219
F1.0
sg220
I0
sg221
I00
sg90
I25
sg222
(lp562
g213
(g224
g215
Ntp563
Rp564
(dp565
g236
I01
sg243
Nsg202
I00
sg244
(lp566
sg246
Nsg237
Nsg242
Nsg238
Nsg239
(lp567
sg206
I320
sg204
I0
sg45
g248
sg46
I897
sbag213
(g224
g215
Ntp568
Rp569
(dp570
g236
I00
sg32
I7624
sg237
Nsg204
I7375
sg238
Nsg239
(lp571
sg41
Nsg43
g122
sg242
Nsg46
I522
sg243
Nsg33
g120
sg202
I00
sg244
(lp572
sg246
Nsg38
I7375
sg206
I7624
sg247
I3
sg45
g248
sbasg249
I-99
sg250
I0
sg251
I00
sg45
I1
sg46
I6
sbag213
(g214
g215
Ntp573
Rp574
(dp575
g219
F1.0
sg220
I0
sg221
I00
sg90
I25
sg222
(lp576
sg249
I-99
sg250
I0
sg251
I00
sg45
I1
sg46
I7
sbag213
(g214
g215
Ntp577
Rp578
(dp579
g219
F1.0
sg220
I0
sg221
I00
sg90
I25
sg222
(lp580
sg249
I-99
sg250
I0
sg251
I00
sg45
I1
sg46
I8
sbag213
(g214
g215
Ntp581
Rp582
(dp583
g219
F1.0
sg220
I0
sg221
I00
sg90
I25
sg222
(lp584
sg249
I-99
sg250
I0
sg251
I00
sg45
I1
sg46
I9
sbag213
(g214
g215
Ntp585
Rp586
(dp587
g219
F1.0
sg220
I0
sg221
I00
sg90
I50
sg222
(lp588
g213
(g224
g215
Ntp589
Rp590
(dp591
g236
I01
sg243
Nsg202
I00
sg244
(lp592
sg246
Nsg237
Nsg242
Nsg238
Nsg239
(lp593
sg206
I13886
sg204
I0
sg45
g248
sg46
I898
sbasg249
I-99
sg250
I0
sg251
I01
sg45
I1
sg46
I10
sbasS'master_audio_gain'
p594
F1.0
sS'next_id'
p595
I899
sg33
Vsequence_1
p596
sS'first_video_index'
p597
I5
sg244
(lp598
sS'proxyclips'
p599
(dp600
sg39
NsS'rendered_versions'
p601
(dp602
sS'seq_len'
p603
I13887
sbasS'profile_desc'
p604
S'1024x576 16:9 PAL'
p605
sS'project_properties'
p606
(dp607
S'P_PROP_TRANSITION_ENCODING'
p608
(I1
I14
tp609
sS'P_PROP_LAST_RENDER_SELECTIONS'
p610
(dp611
S'quality_option_index'
p612
I10
sS'presets_index'
p613
I0
sS'markinmarkout'
p614
(I-1
I-1
tp615
sg33
S'movie'
p616
sS'use_project_profile'
p617
I01
sS'render_args'
p618
NsS'render_profile'
p619
I0
sS'encoding_option_index'
p620
I0
sS'range'
p621
I0
sS'use_user_encodings'
p622
I0
sS'folder'
p623
S'/home/lorry'
p624
sssS'next_media_file_id'
p625
I20
sS'SAVEFILE_VERSION'
p626
I5
sg33
Vhand_assembling_to_machine_code.flb
p627
sS'media_log'
p628
(lp629
sS'update_media_lengths_on_load'
p630
I00
sS'next_seq_number'
p631
I2
sS'c_seq_index'
p632
I0
sS'events'
p633
(lp634
(iprojectdata
ProjectEvent
p635
(dp636
S'timestamp'
p637
cdatetime
datetime
p638
(S'\x07\xe3\x0c\x11\x0e\x02\t\n\xd2\x1c'
p639
tp640
Rp641
sS'data'
p642
g147
sS'event_type'
p643
I1
sba(iprojectdata
ProjectEvent
p644
(dp645
g637
g638
(S'\x07\xe3\x0c\x11\x0f\x00!\x01\x19\x1b'
p646
tp647
Rp648
sg642
g147
sg643
I2
sbasS'bins'
p649
(lp650
g141
asb.