(iprojectdata
Project
p0
(dp1
S'proxy_data'
p2
(imiscdataobjects
ProjectProxyEditingData
p3
(dp4
S'create_rules'
p5
NsS'size'
p6
I1
sS'proxy_mode'
p7
I0
sS'encoding'
p8
I0
sbsS'media_log_groups'
p9
(lp10
sS'next_bin_number'
p11
I2
sS'media_files'
p12
(dp13
I0
(iprojectdata
MediaFile
p14
(dp15
S'has_proxy_file'
p16
I00
sS'info'
p17
NsS'mark_out'
p18
I-1
sS'name'
p19
S'1 intro_clean.ogg'
p20
sS'icon_path'
p21
S'/usr/share/pyshared/Flowblade/res/darktheme/audio_file.png'
p22
sS'id'
p23
I0
sS'mark_in'
p24
I-1
sS'length'
p25
I1075
sS'is_proxy_file'
p26
I00
sS'ttl'
p27
NsS'current_frame'
p28
I0
sS'path'
p29
S'/home/lorry/data/video/techtinkering/2020/position_independent_code_vic_20/audio/1 intro_clean.ogg'
p30
sS'type'
p31
I2
sS'second_file_path'
p32
NsbsI1
(iprojectdata
MediaFile
p33
(dp34
g16
I00
sg17
Nsg18
I-1
sg19
S'2 branch always_clean.ogg'
p35
sg21
S'/usr/share/pyshared/Flowblade/res/darktheme/audio_file.png'
p36
sg23
I1
sg24
I-1
sg25
I3776
sg26
I00
sg27
Nsg28
I0
sg29
S'/home/lorry/data/video/techtinkering/2020/position_independent_code_vic_20/audio/2 branch always_clean.ogg'
p37
sg31
I2
sg32
NsbsI2
(iprojectdata
MediaFile
p38
(dp39
g16
I00
sg17
Nsg18
I-1
sg19
S'3 jump table_clean.ogg'
p40
sg21
S'/usr/share/pyshared/Flowblade/res/darktheme/audio_file.png'
p41
sg23
I2
sg24
I-1
sg25
I7539
sg26
I00
sg27
Nsg28
I0
sg29
S'/home/lorry/data/video/techtinkering/2020/position_independent_code_vic_20/audio/3 jump table_clean.ogg'
p42
sg31
I2
sg32
NsbsI3
(iprojectdata
MediaFile
p43
(dp44
g16
I00
sg17
Nsg18
I-1
sg19
S'4 getpc_clean.ogg'
p45
sg21
S'/usr/share/pyshared/Flowblade/res/darktheme/audio_file.png'
p46
sg23
I3
sg24
I-1
sg25
I8394
sg26
I00
sg27
Nsg28
I0
sg29
S'/home/lorry/data/video/techtinkering/2020/position_independent_code_vic_20/audio/4 getpc_clean.ogg'
p47
sg31
I2
sg32
NsbsI4
(iprojectdata
MediaFile
p48
(dp49
g16
I00
sg17
Nsg18
I-1
sg19
S'5 create data table_clean.ogg'
p50
sg21
S'/usr/share/pyshared/Flowblade/res/darktheme/audio_file.png'
p51
sg23
I4
sg24
I-1
sg25
I4307
sg26
I00
sg27
Nsg28
I0
sg29
S'/home/lorry/data/video/techtinkering/2020/position_independent_code_vic_20/audio/5 create data table_clean.ogg'
p52
sg31
I2
sg32
NsbsI5
(iprojectdata
MediaFile
p53
(dp54
g16
I00
sg17
Nsg18
I-1
sg19
S'6 access data table_clean.ogg'
p55
sg21
S'/usr/share/pyshared/Flowblade/res/darktheme/audio_file.png'
p56
sg23
I5
sg24
I-1
sg25
I3282
sg26
I00
sg27
Nsg28
I0
sg29
S'/home/lorry/data/video/techtinkering/2020/position_independent_code_vic_20/audio/6 access data table_clean.ogg'
p57
sg31
I2
sg32
NsbsI6
(iprojectdata
MediaFile
p58
(dp59
g16
I00
sg17
Nsg18
I-1
sg19
S'7 sm code_clean.ogg'
p60
sg21
S'/usr/share/pyshared/Flowblade/res/darktheme/audio_file.png'
p61
sg23
I6
sg24
I-1
sg25
I12920
sg26
I00
sg27
Nsg28
I0
sg29
S'/home/lorry/data/video/techtinkering/2020/position_independent_code_vic_20/audio/7 sm code_clean.ogg'
p62
sg31
I2
sg32
NsbsI7
(iprojectdata
MediaFile
p63
(dp64
g16
I00
sg17
Nsg18
I-1
sg19
S'8 sm demo_clean.ogg'
p65
sg21
S'/usr/share/pyshared/Flowblade/res/darktheme/audio_file.png'
p66
sg23
I7
sg24
I-1
sg25
I3300
sg26
I00
sg27
Nsg28
I0
sg29
S'/home/lorry/data/video/techtinkering/2020/position_independent_code_vic_20/audio/8 sm demo_clean.ogg'
p67
sg31
I2
sg32
NsbsI8
(iprojectdata
MediaFile
p68
(dp69
g16
I00
sg17
(dp70
S'progressive'
p71
I00
sS'vcodec'
p72
S'H.264 / AVC / MPEG-4 AVC / MPEG-4 part 10'
p73
sS'top_field_first'
p74
I00
sS'fps_den'
p75
F1.0
sS'height'
p76
I568
sS'channels'
p77
I1
sS'width'
p78
I746
sS'length'
p79
I1232
sS'frequency'
p80
I44100
sS'fps_num'
p81
F25.0
sS'acodec'
p82
S'Vorbis'
p83
ssg18
I-1
sg19
S'1_intro.mkv'
p84
sg21
S'/home/lorry/.cache/flowblade/thumbnails/adb938cdd24b9f5dbc9d5c29900cc0c6.png'
p85
sg23
I8
sg24
I-1
sg25
I1232
sg26
I00
sg27
Nsg28
I0
sg29
S'/home/lorry/data/video/techtinkering/2020/position_independent_code_vic_20/video/1_intro.mkv'
p86
sg31
I1
sg32
NsbsI9
(iprojectdata
MediaFile
p87
(dp88
g16
I00
sg17
(dp89
g71
I00
sg72
S'H.264 / AVC / MPEG-4 AVC / MPEG-4 part 10'
p90
sg74
I00
sg75
F1.0
sg76
I568
sg77
I1
sg78
I746
sg79
I3922
sg80
I44100
sg81
F25.0
sg82
S'Vorbis'
p91
ssg18
I-1
sg19
S'2_branch_always.mkv'
p92
sg21
S'/home/lorry/.cache/flowblade/thumbnails/06351c0d402792ecbfc2452b49b14b86.png'
p93
sg23
I9
sg24
I-1
sg25
I3922
sg26
I00
sg27
Nsg28
I0
sg29
S'/home/lorry/data/video/techtinkering/2020/position_independent_code_vic_20/video/2_branch_always.mkv'
p94
sg31
I1
sg32
NsbsI10
(iprojectdata
MediaFile
p95
(dp96
g16
I00
sg17
(dp97
g71
I00
sg72
S'H.264 / AVC / MPEG-4 AVC / MPEG-4 part 10'
p98
sg74
I00
sg75
F1.0
sg76
I568
sg77
I1
sg78
I746
sg79
I7713
sg80
I44100
sg81
F25.0
sg82
S'Vorbis'
p99
ssg18
I-1
sg19
S'3_jump_table.mkv'
p100
sg21
S'/home/lorry/.cache/flowblade/thumbnails/bd3ac75117a55bf00e3630294fc8c628.png'
p101
sg23
I10
sg24
I-1
sg25
I7713
sg26
I00
sg27
Nsg28
I0
sg29
S'/home/lorry/data/video/techtinkering/2020/position_independent_code_vic_20/video/3_jump_table.mkv'
p102
sg31
I1
sg32
NsbsI11
(iprojectdata
MediaFile
p103
(dp104
g16
I00
sg17
(dp105
g71
I00
sg72
S'H.264 / AVC / MPEG-4 AVC / MPEG-4 part 10'
p106
sg74
I00
sg75
F1.0
sg76
I568
sg77
I1
sg78
I746
sg79
I8635
sg80
I44100
sg81
F25.0
sg82
S'Vorbis'
p107
ssg18
I-1
sg19
S'4_getpc.mkv'
p108
sg21
S'/home/lorry/.cache/flowblade/thumbnails/4391f8658f889d77e1747dc2a75a142b.png'
p109
sg23
I11
sg24
I-1
sg25
I8635
sg26
I00
sg27
Nsg28
I0
sg29
S'/home/lorry/data/video/techtinkering/2020/position_independent_code_vic_20/video/4_getpc.mkv'
p110
sg31
I1
sg32
NsbsI12
(iprojectdata
MediaFile
p111
(dp112
g16
I00
sg17
(dp113
g71
I00
sg72
S'H.264 / AVC / MPEG-4 AVC / MPEG-4 part 10'
p114
sg74
I00
sg75
F1.0
sg76
I540
sg77
I1
sg78
I804
sg79
I4429
sg80
I44100
sg81
F25.0
sg82
S'Vorbis'
p115
ssg18
I-1
sg19
S'5_create_data_table.mkv'
p116
sg21
S'/home/lorry/.cache/flowblade/thumbnails/10c0d8d558ebc943e920942e5a499fcf.png'
p117
sg23
I12
sg24
I-1
sg25
I4429
sg26
I00
sg27
Nsg28
I0
sg29
S'/home/lorry/data/video/techtinkering/2020/position_independent_code_vic_20/video/5_create_data_table.mkv'
p118
sg31
I1
sg32
NsbsI13
(iprojectdata
MediaFile
p119
(dp120
g16
I00
sg17
(dp121
g71
I00
sg72
S'H.264 / AVC / MPEG-4 AVC / MPEG-4 part 10'
p122
sg74
I00
sg75
F1.0
sg76
I540
sg77
I1
sg78
I804
sg79
I3415
sg80
I44100
sg81
F25.0
sg82
S'Vorbis'
p123
ssg18
I-1
sg19
S'6_access_data_table.mkv'
p124
sg21
S'/home/lorry/.cache/flowblade/thumbnails/a127b52f8f630daa8fc8db41b79b0c51.png'
p125
sg23
I13
sg24
I-1
sg25
I3415
sg26
I00
sg27
Nsg28
I0
sg29
S'/home/lorry/data/video/techtinkering/2020/position_independent_code_vic_20/video/6_access_data_table.mkv'
p126
sg31
I1
sg32
NsbsI14
(iprojectdata
MediaFile
p127
(dp128
g16
I00
sg17
(dp129
g71
I00
sg72
S'H.264 / AVC / MPEG-4 AVC / MPEG-4 part 10'
p130
sg74
I00
sg75
F1.0
sg76
I540
sg77
I1
sg78
I804
sg79
I13105
sg80
I44100
sg81
F25.0
sg82
S'Vorbis'
p131
ssg18
I-1
sg19
S'7_sm_code.mkv'
p132
sg21
S'/home/lorry/.cache/flowblade/thumbnails/0a1a4ba3700ec407dda5884b4d2e4e4c.png'
p133
sg23
I14
sg24
I-1
sg25
I13105
sg26
I00
sg27
Nsg28
I0
sg29
S'/home/lorry/data/video/techtinkering/2020/position_independent_code_vic_20/video/7 sm_code.mkv'
p134
sg31
I1
sg32
NsbsI15
(iprojectdata
MediaFile
p135
(dp136
g16
I00
sg17
(dp137
g71
I00
sg72
S'H.264 / AVC / MPEG-4 AVC / MPEG-4 part 10'
p138
sg74
I00
sg75
F1.0
sg76
I568
sg77
I1
sg78
I746
sg79
I3516
sg80
I44100
sg81
F25.0
sg82
S'Vorbis'
p139
ssg18
I-1
sg19
S'8 sm demo.mkv'
p140
sg21
S'/home/lorry/.cache/flowblade/thumbnails/10512342f934289b26cd169b4d309f32.png'
p141
sg23
I15
sg24
I-1
sg25
I3516
sg26
I00
sg27
Nsg28
I0
sg29
S'/home/lorry/data/video/techtinkering/2020/position_independent_code_vic_20/video/8 sm demo.mkv'
p142
sg31
I1
sg32
NsbsI16
(iprojectdata
MediaFile
p143
(dp144
g16
I00
sg17
(dp145
S'progressive'
p146
I00
sS'vcodec'
p147
NsS'top_field_first'
p148
I00
sS'length'
p149
I15000
sS'height'
p150
I0
sS'channels'
p151
I0
sS'width'
p152
I0
sS'fps_den'
p153
F0.0
sS'frequency'
p154
I0
sS'fps_num'
p155
F0.0
sS'acodec'
p156
Nssg18
I7624
sg19
S'youtube_endscreen.png'
p157
sg21
S'/home/lorry/.cache/flowblade/thumbnails/7b6d1256ea24938911616cee093e2482.png'
p158
sg32
Nsg24
I7375
sg25
I250
sg26
I00
sg27
Nsg28
I0
sg29
S'/home/lorry/data/video/techtinkering/2020/position_independent_code_vic_20/images/youtube_endscreen.png'
p159
sg31
I3
sg23
I16
sbsI17
(iprojectdata
MediaFile
p160
(dp161
g16
I00
sg17
(dp162
g146
I00
sg147
Nsg148
I00
sg149
I15000
sg150
I0
sg151
I0
sg152
I0
sg153
F0.0
sg154
I0
sg155
F0.0
sg156
Nssg18
I7624
sg19
S'youtube_start_subscribe_black.png'
p163
sg21
S'/home/lorry/.cache/flowblade/thumbnails/00d7d7ff77edb74b5a4404d42865a917.png'
p164
sg32
Nsg24
I7375
sg25
I250
sg26
I00
sg27
Nsg28
I0
sg29
S'/home/lorry/data/video/techtinkering/2020/position_independent_code_vic_20/images/youtube_start_subscribe_black.png'
p165
sg31
I3
sg23
I17
sbsI22
(iprojectdata
MediaFile
p166
(dp167
g16
I00
sg17
(dp168
g146
I00
sg147
Nsg148
I00
sg149
I15000
sg150
I0
sg151
I0
sg152
I0
sg153
F0.0
sg154
I0
sg155
F0.0
sg156
Nssg18
I7624
sg19
S'090A_clarification_title.png'
p169
sg21
S'/home/lorry/.cache/flowblade/thumbnails/a85578477fe3538e817e3aa86510ee00.png'
p170
sg32
Nsg24
I7375
sg25
I250
sg26
I00
sg27
Nsg28
I0
sg29
S'/home/lorry/data/video/techtinkering/2020/position_independent_code_vic_20/images/090A_clarification_title.png'
p171
sg31
I3
sg23
I22
sbsI24
(iprojectdata
MediaFile
p172
(dp173
g16
I00
sg17
(dp174
g146
I00
sg147
Nsg148
I00
sg149
I15000
sg150
I0
sg151
I0
sg152
I0
sg153
F0.0
sg154
I0
sg155
F0.0
sg156
Nssg18
I7624
sg19
S'byte_not_bit.png'
p175
sg21
S'/home/lorry/.cache/flowblade/thumbnails/99b872e51a56cd6e8bd39498f5ac0d9c.png'
p176
sg32
Nsg24
I7375
sg25
I250
sg26
I00
sg27
Nsg28
I0
sg29
S'/home/lorry/data/video/techtinkering/2020/position_independent_code_vic_20/images/byte_not_bit.png'
p177
sg31
I3
sg23
I24
sbssS'c_bin'
p178
(iprojectdata
Bin
p179
(dp180
g19
Vbin_1
p181
sS'file_ids'
p182
(lp183
I0
aI1
aI2
aI3
aI4
aI5
aI6
aI7
aI8
aI9
aI10
aI11
aI12
aI13
aI14
aI15
aI16
aI17
aI22
aI24
asbsS'last_save_path'
p184
S'/home/lorry/data/video/techtinkering/2020/position_independent_code_vic_20/pic_vic20.flb'
p185
sS'sequences'
p186
(lp187
(isequence
Sequence
p188
(dp189
S'compositors'
p190
(lp191
(imlttransitions
CompositorObject
p192
(dp193
S'planted'
p194
I01
sS'compositor_index'
p195
I-1
sS'transition'
p196
(imlttransitions
CompositorTransition
p197
(dp198
g17
(imlttransitions
CompositorTransitionInfo
p199
(dp200
S'xml'
p201
V<compositortransition mlt_service="frei0r.cairoblend">\u000a        <name>##blend</name>\u000a        <property args="editor=combobox exptype=default_transition displayname=Blend!Mode cbopts=Normal:normal,Add:add,Saturate:saturate,Multiply:multiply,Screen:screen,Overlay:overlay,Darken:darken,Lighten:lighten,ColorDodge:colordodge,Colorburn:colorburn,Hardlight:hardlight,Softlight:softlight,Difference:difference,Exclusion:exclusion,HSLHue:hslhue,HSLSaturation:hslsaturation,HSLColor:hslcolor,HSLLuminosity:hslluminosity" name="1">normal</property>\u000a        <property args="editor=keyframe_editor_clip_fade range_in=0,100 range_out=0,1 exptype=keyframe_hcs_transition displayname=Opacity" name="0">0=1.0</property>\u000a        <property args="editor=no_editor" name="automatic">1</property>\u000a        <property args="editor=no_editor" name="force_track">0</property>\u000a    </compositortransition>
p202
sg19
V##blend
p203
sS'property_args'
p204
(dp205
V1
p206
Veditor=combobox exptype=default_transition displayname=Blend!Mode cbopts=Normal:normal,Add:add,Saturate:saturate,Multiply:multiply,Screen:screen,Overlay:overlay,Darken:darken,Lighten:lighten,ColorDodge:colordodge,Colorburn:colorburn,Hardlight:hardlight,Softlight:softlight,Difference:difference,Exclusion:exclusion,HSLHue:hslhue,HSLSaturation:hslsaturation,HSLColor:hslcolor,HSLLuminosity:hslluminosity
p207
sV0
p208
Veditor=keyframe_editor_clip_fade range_in=0,100 range_out=0,1 exptype=keyframe_hcs_transition displayname=Opacity
p209
sVforce_track
p210
Veditor=no_editor
p211
sVautomatic
p212
Veditor=no_editor
p213
ssS'auto_fade_compositor'
p214
I00
sS'mlt_service_id'
p215
Vfrei0r.cairoblend
p216
sS'extra_editors'
p217
(lp218
sS'properties'
p219
(lp220
(g206
Vnormal
p221
I2
tp222
a(g208
V0=1.0
p223
I2
tp224
a(g212
V1
p225
I0
tp226
a(g210
V0
p227
I0
tp228
asbsS'b_track'
p229
I6
sg219
(lp230
(V1
p231
Vnormal
p232
I2
tp233
a(S'0'
p234
S'0=1.0'
p235
I2
tp236
a(Vautomatic
p237
V1
p238
I0
tp239
a(Vforce_track
p240
V0
p241
I0
tp242
asS'a_track'
p243
I5
sS'mlt_transition'
p244
Nsbsg19
VBlend
p245
sS'type_id'
p246
S'##blend'
p247
sS'selected'
p248
I00
sS'obey_autofollow'
p249
I01
sS'clip_in'
p250
I15148
sS'origin_clip_id'
p251
I1120
sS'clip_out'
p252
I15397
sS'destroy_id'
p253
S'\x9e^\xf3X\xc1\xcc\x9dj%\xe6w\xdd.\xb0K-'
p254
sba(imlttransitions
CompositorObject
p255
(dp256
g194
I01
sg195
I-1
sg196
(imlttransitions
CompositorTransition
p257
(dp258
g17
g199
sg229
I6
sg219
(lp259
(g231
g232
I2
tp260
a(S'0'
p261
S'0=1.0'
p262
I2
tp263
ag239
ag242
asg243
I5
sg244
Nsbsg19
g245
sg246
g247
sg248
I00
sg249
I01
sg250
I21307
sg251
I1261
sg252
I21556
sg253
S'\xa1\x86Qv\xc0>\xc3%,\xa3\x9e\x8d\x9b:q\xa7'
p264
sba(imlttransitions
CompositorObject
p265
(dp266
g194
I01
sg195
I-1
sg196
(imlttransitions
CompositorTransition
p267
(dp268
g17
g199
sg229
I6
sg219
(lp269
(g231
g232
I2
tp270
a(S'0'
p271
S'0=1.0'
p272
I2
tp273
ag239
ag242
asg243
I5
sg244
Nsbsg19
g245
sg246
g247
sg248
I00
sg249
I01
sg250
I697
sg251
I1900
sg252
I946
sg253
S'\xc9\xca\xd4\x8fV\xce\xf8XA\xefw\xcf\xaa\xaa\xc9\x1d'
p274
sbasS'master_audio_pan'
p275
I-99
sS'watermark_file_path'
p276
NsS'tracks'
p277
(lp278
ccopy_reg
_reconstructor
p279
(cmlt
Playlist
p280
c__builtin__
object
p281
Ntp282
Rp283
(dp284
S'audio_gain'
p285
F1.0
sS'edit_freedom'
p286
I0
sS'is_sync_track'
p287
I00
sS'height'
p288
I50
sS'clips'
p289
(lp290
g279
(cmlt
Producer
p291
g281
Ntp292
Rp293
(dp294
S'create_data'
p295
(ipatternproducer
BinColorClip
p296
(dp297
g16
I00
sg18
I-1
sg19
S'black_bg'
p298
sS'patter_producer_type'
p299
I1
sS'gdk_color_str'
p300
S'#000000000000'
p301
sg23
I-1
sg24
I-1
sg25
I15000
sg26
I00
sg31
I5
sg32
NsS'icon'
p302
NsbsS'is_blanck_clip'
p303
I00
sS'color'
p304
Nsg250
I0
sS'sync_data'
p305
NsS'filters'
p306
(lp307
sg29
S''
p308
sS'mute_filter'
p309
Nsg23
I4735
sS'waveform_data'
p310
Nsg19
g298
sg248
I00
sS'markers'
p311
(lp312
sS'stream_indexes'
p313
Nsg252
I0
sS'media_type'
p314
I5
sg31
S'Mlt__Producer'
p315
sbasS'audio_pan'
p316
I-99
sS'mute_state'
p317
I0
sS'active'
p318
I01
sg31
I1
sg23
I0
sbag279
(g280
g281
Ntp319
Rp320
(dp321
g285
F1.0
sg286
I0
sg287
I00
sg288
I25
sg289
(lp322
sg316
I-99
sg317
I1
sg318
I01
sg31
I2
sg23
I1
sbag279
(g280
g281
Ntp323
Rp324
(dp325
g285
F1.0
sg286
I0
sg287
I00
sg288
I25
sg289
(lp326
sg316
I-99
sg317
I1
sg318
I01
sg31
I2
sg23
I2
sbag279
(g280
g281
Ntp327
Rp328
(dp329
g285
F1.0
sg286
I0
sg287
I00
sg288
I25
sg289
(lp330
sg316
I-99
sg317
I1
sg318
I01
sg31
I2
sg23
I3
sbag279
(g280
g281
Ntp331
Rp332
(dp333
g285
F1.0
sg286
I0
sg287
I00
sg288
I25
sg289
(lp334
g279
(g291
g281
Ntp335
Rp336
(dp337
g303
I00
sg18
I1074
sg304
Nsg250
I0
sg305
Nsg306
(lp338
sg27
Nsg29
g30
sg313
Nsg23
I16
sg310
Nsg19
g20
sg248
I00
sg311
(lp339
sg309
Nsg24
I0
sg252
I1074
sg314
I2
sg31
g315
sbag279
(g291
g281
Ntp340
Rp341
(dp342
g303
I01
sg304
Nsg250
I0
sg305
Nsg306
(lp343
sg27
Nsg313
Nsg23
I4612
sg310
Nsg248
I00
sg311
(lp344
sg309
Nsg252
I6
sg31
g315
sbag279
(g291
g281
Ntp345
Rp346
(dp347
g303
I00
sg18
I3775
sg304
Nsg250
I0
sg305
Nsg306
(lp348
sg27
Nsg29
g37
sg313
Nsg23
I24
sg310
Nsg19
g35
sg248
I00
sg311
(lp349
sg309
Nsg24
I0
sg252
I793
sg314
I2
sg31
g315
sbag279
(g291
g281
Ntp350
Rp351
(dp352
g303
I00
sg304
Nsg250
I872
sg305
Nsg306
(lp353
sg27
Nsg29
g37
sg313
Nsg23
I44
sg310
Nsg19
g35
sg248
I00
sg311
(lp354
sg309
Nsg252
I1225
sg314
I2
sg31
g315
sbag279
(g291
g281
Ntp355
Rp356
(dp357
g303
I00
sg304
Nsg250
I1260
sg305
Nsg306
(lp358
sg27
Nsg29
g37
sg313
Nsg23
I56
sg310
Nsg19
g35
sg248
I00
sg311
(lp359
sg309
Nsg252
I1285
sg314
I2
sg31
g315
sbag279
(g291
g281
Ntp360
Rp361
(dp362
g303
I00
sg304
Nsg250
I1309
sg305
Nsg306
(lp363
sg27
Nsg29
g37
sg313
Nsg23
I78
sg310
Nsg19
g35
sg248
I00
sg311
(lp364
sg309
Nsg252
I3157
sg314
I2
sg31
g315
sbag279
(g291
g281
Ntp365
Rp366
(dp367
g303
I00
sg304
Nsg250
I3189
sg305
Nsg306
(lp368
sg27
Nsg29
g37
sg313
Nsg23
I88
sg310
Nsg19
g35
sg248
I00
sg311
(lp369
sg309
Nsg252
I3775
sg314
I2
sg31
g315
sbag279
(g291
g281
Ntp370
Rp371
(dp372
g303
I01
sg304
Nsg250
I0
sg305
Nsg306
(lp373
sg27
Nsg313
Nsg23
I4611
sg310
Nsg248
I00
sg311
(lp374
sg309
Nsg252
I6
sg31
g315
sbag279
(g291
g281
Ntp375
Rp376
(dp377
g303
I00
sg18
I7538
sg304
Nsg250
I0
sg305
Nsg306
(lp378
sg27
Nsg29
g42
sg313
Nsg23
I120
sg310
Nsg19
g40
sg248
I00
sg311
(lp379
sg309
Nsg24
I0
sg252
I794
sg314
I2
sg31
g315
sbag279
(g291
g281
Ntp380
Rp381
(dp382
g303
I00
sg304
Nsg250
I1206
sg305
Nsg306
(lp383
sg27
Nsg29
g42
sg313
Nsg23
I151
sg310
Nsg19
g40
sg248
I00
sg311
(lp384
sg309
Nsg252
I1229
sg314
I2
sg31
g315
sbag279
(g291
g281
Ntp385
Rp386
(dp387
g303
I00
sg304
Nsg250
I1363
sg305
Nsg306
(lp388
sg27
Nsg29
g42
sg313
Nsg23
I173
sg310
Nsg19
g40
sg248
I00
sg311
(lp389
sg309
Nsg252
I1532
sg314
I2
sg31
g315
sbag279
(g291
g281
Ntp390
Rp391
(dp392
g303
I00
sg304
Nsg250
I1638
sg305
Nsg306
(lp393
sg27
Nsg29
g42
sg313
Nsg23
I209
sg310
Nsg19
g40
sg248
I00
sg311
(lp394
sg309
Nsg252
I1692
sg314
I2
sg31
g315
sbag279
(g291
g281
Ntp395
Rp396
(dp397
g303
I00
sg304
Nsg250
I2073
sg305
Nsg306
(lp398
sg27
Nsg29
g42
sg313
Nsg23
I231
sg310
Nsg19
g40
sg248
I00
sg311
(lp399
sg309
Nsg252
I2630
sg314
I2
sg31
g315
sbag279
(g291
g281
Ntp400
Rp401
(dp402
g303
I00
sg304
Nsg250
I2660
sg305
Nsg306
(lp403
sg27
Nsg29
g42
sg313
Nsg23
I253
sg310
Nsg19
g40
sg248
I00
sg311
(lp404
sg309
Nsg252
I3120
sg314
I2
sg31
g315
sbag279
(g291
g281
Ntp405
Rp406
(dp407
g303
I00
sg304
Nsg250
I3160
sg305
Nsg306
(lp408
sg27
Nsg29
g42
sg313
Nsg23
I275
sg310
Nsg19
g40
sg248
I00
sg311
(lp409
sg309
Nsg252
I3584
sg314
I2
sg31
g315
sbag279
(g291
g281
Ntp410
Rp411
(dp412
g303
I00
sg304
Nsg250
I3623
sg305
Nsg306
(lp413
sg27
Nsg29
g42
sg313
Nsg23
I297
sg310
Nsg19
g40
sg248
I00
sg311
(lp414
sg309
Nsg252
I3796
sg314
I2
sg31
g315
sbag279
(g291
g281
Ntp415
Rp416
(dp417
g303
I00
sg304
Nsg250
I3974
sg305
Nsg306
(lp418
sg27
Nsg29
g42
sg313
Nsg23
I319
sg310
Nsg19
g40
sg248
I00
sg311
(lp419
sg309
Nsg252
I4488
sg314
I2
sg31
g315
sbag279
(g291
g281
Ntp420
Rp421
(dp422
g303
I00
sg304
Nsg250
I4557
sg305
Nsg306
(lp423
sg27
Nsg29
g42
sg313
Nsg23
I341
sg310
Nsg19
g40
sg248
I00
sg311
(lp424
sg309
Nsg252
I4926
sg314
I2
sg31
g315
sbag279
(g291
g281
Ntp425
Rp426
(dp427
g303
I00
sg304
Nsg250
I5061
sg305
Nsg306
(lp428
sg27
Nsg29
g42
sg313
Nsg23
I377
sg310
Nsg19
g40
sg248
I00
sg311
(lp429
sg309
Nsg252
I5682
sg314
I2
sg31
g315
sbag279
(g291
g281
Ntp430
Rp431
(dp432
g303
I00
sg304
Nsg250
I5767
sg305
Nsg306
(lp433
sg27
Nsg29
g42
sg313
Nsg23
I391
sg310
Nsg19
g40
sg248
I00
sg311
(lp434
sg309
Nsg252
I7538
sg314
I2
sg31
g315
sbag279
(g291
g281
Ntp435
Rp436
(dp437
g303
I01
sg304
Nsg250
I0
sg305
Nsg306
(lp438
sg27
Nsg313
Nsg23
I4610
sg310
Nsg248
I00
sg311
(lp439
sg309
Nsg252
I10
sg31
g315
sbag279
(g291
g281
Ntp440
Rp441
(dp442
g303
I00
sg18
I8393
sg304
Nsg250
I0
sg305
Nsg306
(lp443
sg27
Nsg29
g47
sg313
Nsg23
I433
sg310
Nsg19
g45
sg248
I00
sg311
(lp444
sg309
Nsg24
I0
sg252
I1268
sg314
I2
sg31
g315
sbag279
(g291
g281
Ntp445
Rp446
(dp447
g303
I00
sg304
Nsg250
I1359
sg305
Nsg306
(lp448
sg27
Nsg29
g47
sg313
Nsg23
I461
sg310
Nsg19
g45
sg248
I00
sg311
(lp449
sg309
Nsg252
I1456
sg314
I2
sg31
g315
sbag279
(g291
g281
Ntp450
Rp451
(dp452
g303
I00
sg304
Nsg250
I1567
sg305
Nsg306
(lp453
sg27
Nsg29
g47
sg313
Nsg23
I479
sg310
Nsg19
g45
sg248
I00
sg311
(lp454
sg309
Nsg252
I2144
sg314
I2
sg31
g315
sbag279
(g291
g281
Ntp455
Rp456
(dp457
g303
I00
sg304
Nsg250
I2191
sg305
Nsg306
(lp458
sg27
Nsg29
g47
sg313
Nsg23
I517
sg310
Nsg19
g45
sg248
I00
sg311
(lp459
sg309
Nsg252
I2261
sg314
I2
sg31
g315
sbag279
(g291
g281
Ntp460
Rp461
(dp462
g303
I00
sg304
Nsg250
I2348
sg305
Nsg306
(lp463
sg27
Nsg29
g47
sg313
Nsg23
I545
sg310
Nsg19
g45
sg248
I00
sg311
(lp464
sg309
Nsg252
I2366
sg314
I2
sg31
g315
sbag279
(g291
g281
Ntp465
Rp466
(dp467
g303
I00
sg304
Nsg250
I2437
sg305
Nsg306
(lp468
sg27
Nsg29
g47
sg313
Nsg23
I573
sg310
Nsg19
g45
sg248
I00
sg311
(lp469
sg309
Nsg252
I2544
sg314
I2
sg31
g315
sbag279
(g291
g281
Ntp470
Rp471
(dp472
g303
I00
sg304
Nsg250
I2574
sg305
Nsg306
(lp473
sg27
Nsg29
g47
sg313
Nsg23
I601
sg310
Nsg19
g45
sg248
I00
sg311
(lp474
sg309
Nsg252
I2792
sg314
I2
sg31
g315
sbag279
(g291
g281
Ntp475
Rp476
(dp477
g303
I00
sg304
Nsg250
I2838
sg305
Nsg306
(lp478
sg27
Nsg29
g47
sg313
Nsg23
I629
sg310
Nsg19
g45
sg248
I00
sg311
(lp479
sg309
Nsg252
I3453
sg314
I2
sg31
g315
sbag279
(g291
g281
Ntp480
Rp481
(dp482
g303
I00
sg304
Nsg250
I3536
sg305
Nsg306
(lp483
sg27
Nsg29
g47
sg313
Nsg23
I647
sg310
Nsg19
g45
sg248
I00
sg311
(lp484
sg309
Nsg252
I3690
sg314
I2
sg31
g315
sbag279
(g291
g281
Ntp485
Rp486
(dp487
g303
I00
sg304
Nsg250
I3737
sg305
Nsg306
(lp488
sg27
Nsg29
g47
sg313
Nsg23
I685
sg310
Nsg19
g45
sg248
I00
sg311
(lp489
sg309
Nsg252
I3954
sg314
I2
sg31
g315
sbag279
(g291
g281
Ntp490
Rp491
(dp492
g303
I00
sg304
Nsg250
I4016
sg305
Nsg306
(lp493
sg27
Nsg29
g47
sg313
Nsg23
I713
sg310
Nsg19
g45
sg248
I00
sg311
(lp494
sg309
Nsg252
I4214
sg314
I2
sg31
g315
sbag279
(g291
g281
Ntp495
Rp496
(dp497
g303
I00
sg304
Nsg250
I4638
sg305
Nsg306
(lp498
sg27
Nsg29
g47
sg313
Nsg23
I741
sg310
Nsg19
g45
sg248
I00
sg311
(lp499
sg309
Nsg252
I4916
sg314
I2
sg31
g315
sbag279
(g291
g281
Ntp500
Rp501
(dp502
g303
I00
sg304
Nsg250
I4995
sg305
Nsg306
(lp503
sg27
Nsg29
g47
sg313
Nsg23
I759
sg310
Nsg19
g45
sg248
I00
sg311
(lp504
sg309
Nsg252
I5214
sg314
I2
sg31
g315
sbag279
(g291
g281
Ntp505
Rp506
(dp507
g303
I00
sg304
Nsg250
I5256
sg305
Nsg306
(lp508
sg27
Nsg29
g47
sg313
Nsg23
I797
sg310
Nsg19
g45
sg248
I00
sg311
(lp509
sg309
Nsg252
I5283
sg314
I2
sg31
g315
sbag279
(g291
g281
Ntp510
Rp511
(dp512
g303
I00
sg304
Nsg250
I5326
sg305
Nsg306
(lp513
sg27
Nsg29
g47
sg313
Nsg23
I825
sg310
Nsg19
g45
sg248
I00
sg311
(lp514
sg309
Nsg252
I6410
sg314
I2
sg31
g315
sbag279
(g291
g281
Ntp515
Rp516
(dp517
g303
I00
sg304
Nsg250
I6480
sg305
Nsg306
(lp518
sg27
Nsg29
g47
sg313
Nsg23
I888
sg310
Nsg19
g45
sg248
I00
sg311
(lp519
sg309
Nsg252
I6520
sg314
I2
sg31
g315
sbag279
(g291
g281
Ntp520
Rp521
(dp522
g303
I00
sg304
Nsg250
I6608
sg305
Nsg306
(lp523
sg27
Nsg29
g47
sg313
Nsg23
I910
sg310
Nsg19
g45
sg248
I00
sg311
(lp524
sg309
Nsg252
I8393
sg314
I2
sg31
g315
sbag279
(g291
g281
Ntp525
Rp526
(dp527
g303
I01
sg304
Nsg250
I0
sg305
Nsg306
(lp528
sg27
Nsg313
Nsg23
I4609
sg310
Nsg248
I00
sg311
(lp529
sg309
Nsg252
I12
sg31
g315
sbag279
(g291
g281
Ntp530
Rp531
(dp532
g303
I00
sg18
I4306
sg304
Nsg250
I0
sg305
Nsg306
(lp533
sg27
Nsg29
g52
sg313
Nsg23
I944
sg310
Nsg19
g50
sg248
I00
sg311
(lp534
sg309
Nsg24
I0
sg252
I38
sg314
I2
sg31
g315
sbag279
(g291
g281
Ntp535
Rp536
(dp537
g303
I00
sg304
Nsg250
I39
sg305
Nsg306
(lp538
sg27
Nsg29
g52
sg313
Nsg23
I952
sg310
Nsg19
g50
sg248
I00
sg311
(lp539
sg309
Nsg252
I4306
sg314
I2
sg31
g315
sbag279
(g291
g281
Ntp540
Rp541
(dp542
g303
I01
sg304
Nsg250
I0
sg305
Nsg306
(lp543
sg27
Nsg313
Nsg23
I4608
sg310
Nsg248
I00
sg311
(lp544
sg309
Nsg252
I39
sg31
g315
sbag279
(g291
g281
Ntp545
Rp546
(dp547
g303
I00
sg18
I3281
sg304
Nsg250
I0
sg305
Nsg306
(lp548
sg27
Nsg29
g57
sg313
Nsg23
I1345
sg310
Nsg19
g55
sg248
I00
sg311
(lp549
sg309
Nsg24
I0
sg252
I3281
sg314
I2
sg31
g315
sbag279
(g291
g281
Ntp550
Rp551
(dp552
g303
I01
sg304
Nsg250
I0
sg305
Nsg306
(lp553
sg27
Nsg313
Nsg23
I4607
sg310
Nsg248
I00
sg311
(lp554
sg309
Nsg252
I55
sg31
g315
sbag279
(g291
g281
Ntp555
Rp556
(dp557
g303
I00
sg304
Nsg250
I97
sg305
Nsg306
(lp558
sg27
Nsg29
g62
sg313
Nsg23
I2394
sg310
Nsg19
g60
sg248
I00
sg311
(lp559
sg309
Nsg252
I883
sg314
I2
sg31
g315
sbag279
(g291
g281
Ntp560
Rp561
(dp562
g303
I00
sg304
Nsg250
I952
sg305
Nsg306
(lp563
sg27
Nsg29
g62
sg313
Nsg23
I2464
sg310
Nsg19
g60
sg248
I00
sg311
(lp564
sg309
Nsg252
I2537
sg314
I2
sg31
g315
sbag279
(g291
g281
Ntp565
Rp566
(dp567
g303
I00
sg304
Nsg250
I2567
sg305
Nsg306
(lp568
sg27
Nsg29
g62
sg313
Nsg23
I2860
sg310
Nsg19
g60
sg248
I00
sg311
(lp569
sg309
Nsg252
I2612
sg314
I2
sg31
g315
sbag279
(g291
g281
Ntp570
Rp571
(dp572
g303
I00
sg304
Nsg250
I2635
sg305
Nsg306
(lp573
sg27
Nsg29
g62
sg313
Nsg23
I2930
sg310
Nsg19
g60
sg248
I00
sg311
(lp574
sg309
Nsg252
I3241
sg314
I2
sg31
g315
sbag279
(g291
g281
Ntp575
Rp576
(dp577
g303
I00
sg304
Nsg250
I3274
sg305
Nsg306
(lp578
sg27
Nsg29
g62
sg313
Nsg23
I2580
sg310
Nsg19
g60
sg248
I00
sg311
(lp579
sg309
Nsg252
I3404
sg314
I2
sg31
g315
sbag279
(g291
g281
Ntp580
Rp581
(dp582
g303
I00
sg304
Nsg250
I3453
sg305
Nsg306
(lp583
sg27
Nsg29
g62
sg313
Nsg23
I2650
sg310
Nsg19
g60
sg248
I00
sg311
(lp584
sg309
Nsg252
I3506
sg314
I2
sg31
g315
sbag279
(g291
g281
Ntp585
Rp586
(dp587
g303
I00
sg304
Nsg250
I3561
sg305
Nsg306
(lp588
sg27
Nsg29
g62
sg313
Nsg23
I2720
sg310
Nsg19
g60
sg248
I00
sg311
(lp589
sg309
Nsg252
I3714
sg314
I2
sg31
g315
sbag279
(g291
g281
Ntp590
Rp591
(dp592
g303
I00
sg304
Nsg250
I3798
sg305
Nsg306
(lp593
sg27
Nsg29
g62
sg313
Nsg23
I3059
sg310
Nsg19
g60
sg248
I00
sg311
(lp594
sg309
Nsg252
I4775
sg314
I2
sg31
g315
sbag279
(g291
g281
Ntp595
Rp596
(dp597
g303
I00
sg304
Nsg250
I4812
sg305
Nsg306
(lp598
sg27
Nsg29
g62
sg313
Nsg23
I2790
sg310
Nsg19
g60
sg248
I00
sg311
(lp599
sg309
Nsg252
I5199
sg314
I2
sg31
g315
sbag279
(g291
g281
Ntp600
Rp601
(dp602
g303
I00
sg304
Nsg250
I5298
sg305
Nsg306
(lp603
sg27
Nsg29
g62
sg313
Nsg23
I3129
sg310
Nsg19
g60
sg248
I00
sg311
(lp604
sg309
Nsg252
I11448
sg314
I2
sg31
g315
sbag279
(g291
g281
Ntp605
Rp606
(dp607
g303
I00
sg304
Nsg250
I11483
sg305
Nsg306
(lp608
sg27
Nsg29
g62
sg313
Nsg23
I3199
sg310
Nsg19
g60
sg248
I00
sg311
(lp609
sg309
Nsg252
I11978
sg314
I2
sg31
g315
sbag279
(g291
g281
Ntp610
Rp611
(dp612
g303
I01
sg304
Nsg250
I0
sg305
Nsg306
(lp613
sg27
Nsg313
Nsg23
I4606
sg310
Nsg248
I00
sg311
(lp614
sg309
Nsg252
I10
sg31
g315
sbag279
(g291
g281
Ntp615
Rp616
(dp617
g303
I00
sg18
I3299
sg304
Nsg250
I0
sg305
Nsg306
(lp618
sg27
Nsg29
g67
sg313
Nsg23
I1552
sg310
Nsg19
g65
sg248
I00
sg311
(lp619
sg309
Nsg24
I0
sg252
I1457
sg314
I2
sg31
g315
sbag279
(g291
g281
Ntp620
Rp621
(dp622
g303
I00
sg304
Nsg250
I1840
sg305
Nsg306
(lp623
sg27
Nsg29
g67
sg313
Nsg23
I4059
sg310
Nsg19
g65
sg248
I00
sg311
(lp624
sg309
Nsg252
I2395
sg314
I2
sg31
g315
sbag279
(g291
g281
Ntp625
Rp626
(dp627
g303
I00
sg304
Nsg250
I2441
sg305
Nsg306
(lp628
sg27
Nsg29
g67
sg313
Nsg23
I4151
sg310
Nsg19
g65
sg248
I00
sg311
(lp629
sg309
Nsg252
I2930
sg314
I2
sg31
g315
sbag279
(g291
g281
Ntp630
Rp631
(dp632
g303
I00
sg304
Nsg250
I2983
sg305
Nsg306
(lp633
sg27
Nsg29
g67
sg313
Nsg23
I4478
sg310
Nsg19
g65
sg248
I00
sg311
(lp634
sg309
Nsg252
I3298
sg314
I2
sg31
g315
sbasg316
I-99
sg317
I1
sg318
I01
sg31
I2
sg23
I4
sbag279
(g280
g281
Ntp635
Rp636
(dp637
g285
F1.0
sg286
I0
sg287
I00
sg288
I50
sg289
(lp638
g279
(g291
g281
Ntp639
Rp640
(dp641
g303
I00
sg18
I1231
sg304
Nsg250
I41
sg305
Nsg306
(lp642
sg27
Nsg29
g86
sg313
Nsg23
I14
sg310
Nsg19
g84
sg248
I00
sg311
(lp643
sg309
Nsg24
I0
sg252
I1122
sg314
I1
sg31
g315
sbag279
(g291
g281
Ntp644
Rp645
(dp646
g303
I00
sg18
I3921
sg304
Nsg250
I44
sg305
Nsg306
(lp647
sg27
Nsg29
g94
sg313
Nsg23
I33
sg310
Nsg19
g92
sg248
I00
sg311
(lp648
sg309
Nsg24
I0
sg252
I821
sg314
I1
sg31
g315
sbag279
(g291
g281
Ntp649
Rp650
(dp651
g303
I00
sg304
Nsg250
I900
sg305
Nsg306
(lp652
sg27
Nsg29
g94
sg313
Nsg23
I47
sg310
Nsg19
g92
sg248
I00
sg311
(lp653
sg309
Nsg252
I1269
sg314
I1
sg31
g315
sbag279
(g291
g281
Ntp654
Rp655
(dp656
g303
I00
sg304
Nsg250
I1304
sg305
Nsg306
(lp657
sg27
Nsg29
g94
sg313
Nsg23
I59
sg310
Nsg19
g92
sg248
I00
sg311
(lp658
sg309
Nsg252
I1329
sg314
I1
sg31
g315
sbag279
(g291
g281
Ntp659
Rp660
(dp661
g303
I00
sg304
Nsg250
I1353
sg305
Nsg306
(lp662
sg27
Nsg29
g94
sg313
Nsg23
I81
sg310
Nsg19
g92
sg248
I00
sg311
(lp663
sg309
Nsg252
I3201
sg314
I1
sg31
g315
sbag279
(g291
g281
Ntp664
Rp665
(dp666
g303
I00
sg304
Nsg250
I3233
sg305
Nsg306
(lp667
sg27
Nsg29
g94
sg313
Nsg23
I91
sg310
Nsg19
g92
sg248
I00
sg311
(lp668
sg309
Nsg252
I3819
sg314
I1
sg31
g315
sbag279
(g291
g281
Ntp669
Rp670
(dp671
g303
I00
sg18
I7712
sg304
Nsg250
I34
sg305
Nsg306
(lp672
sg27
Nsg29
g102
sg313
Nsg23
I109
sg310
Nsg19
g100
sg248
I00
sg311
(lp673
sg309
Nsg24
I0
sg252
I835
sg314
I1
sg31
g315
sbag279
(g291
g281
Ntp674
Rp675
(dp676
g303
I00
sg304
Nsg250
I1247
sg305
Nsg306
(lp677
sg27
Nsg29
g102
sg313
Nsg23
I155
sg310
Nsg19
g100
sg248
I00
sg311
(lp678
sg309
Nsg252
I1270
sg314
I1
sg31
g315
sbag279
(g291
g281
Ntp679
Rp680
(dp681
g303
I00
sg304
Nsg250
I1404
sg305
Nsg306
(lp682
sg27
Nsg29
g102
sg313
Nsg23
I177
sg310
Nsg19
g100
sg248
I00
sg311
(lp683
sg309
Nsg252
I1573
sg314
I1
sg31
g315
sbag279
(g291
g281
Ntp684
Rp685
(dp686
g303
I00
sg304
Nsg250
I1679
sg305
Nsg306
(lp687
sg27
Nsg29
g102
sg313
Nsg23
I213
sg310
Nsg19
g100
sg248
I00
sg311
(lp688
sg309
Nsg252
I1733
sg314
I1
sg31
g315
sbag279
(g291
g281
Ntp689
Rp690
(dp691
g303
I00
sg304
Nsg250
I2114
sg305
Nsg306
(lp692
sg27
Nsg29
g102
sg313
Nsg23
I235
sg310
Nsg19
g100
sg248
I00
sg311
(lp693
sg309
Nsg252
I2671
sg314
I1
sg31
g315
sbag279
(g291
g281
Ntp694
Rp695
(dp696
g303
I00
sg304
Nsg250
I2701
sg305
Nsg306
(lp697
sg27
Nsg29
g102
sg313
Nsg23
I257
sg310
Nsg19
g100
sg248
I00
sg311
(lp698
sg309
Nsg252
I3161
sg314
I1
sg31
g315
sbag279
(g291
g281
Ntp699
Rp700
(dp701
g303
I00
sg304
Nsg250
I3201
sg305
Nsg306
(lp702
sg27
Nsg29
g102
sg313
Nsg23
I279
sg310
Nsg19
g100
sg248
I00
sg311
(lp703
sg309
Nsg252
I3625
sg314
I1
sg31
g315
sbag279
(g291
g281
Ntp704
Rp705
(dp706
g303
I00
sg304
Nsg250
I3664
sg305
Nsg306
(lp707
sg27
Nsg29
g102
sg313
Nsg23
I301
sg310
Nsg19
g100
sg248
I00
sg311
(lp708
sg309
Nsg252
I3837
sg314
I1
sg31
g315
sbag279
(g291
g281
Ntp709
Rp710
(dp711
g303
I00
sg304
Nsg250
I4015
sg305
Nsg306
(lp712
sg27
Nsg29
g102
sg313
Nsg23
I323
sg310
Nsg19
g100
sg248
I00
sg311
(lp713
sg309
Nsg252
I4529
sg314
I1
sg31
g315
sbag279
(g291
g281
Ntp714
Rp715
(dp716
g303
I00
sg304
Nsg250
I4598
sg305
Nsg306
(lp717
sg27
Nsg29
g102
sg313
Nsg23
I345
sg310
Nsg19
g100
sg248
I00
sg311
(lp718
sg309
Nsg252
I4967
sg314
I1
sg31
g315
sbag279
(g291
g281
Ntp719
Rp720
(dp721
g303
I00
sg304
Nsg250
I5102
sg305
Nsg306
(lp722
sg27
Nsg29
g102
sg313
Nsg23
I381
sg310
Nsg19
g100
sg248
I00
sg311
(lp723
sg309
Nsg252
I5723
sg314
I1
sg31
g315
sbag279
(g291
g281
Ntp724
Rp725
(dp726
g303
I00
sg304
Nsg250
I5808
sg305
Nsg306
(lp727
sg27
Nsg29
g102
sg313
Nsg23
I395
sg310
Nsg19
g100
sg248
I00
sg311
(lp728
sg309
Nsg252
I7579
sg314
I1
sg31
g315
sbag279
(g291
g281
Ntp729
Rp730
(dp731
g303
I00
sg18
I8634
sg304
Nsg250
I75
sg305
Nsg306
(lp732
sg27
Nsg29
g110
sg313
Nsg23
I420
sg310
Nsg19
g108
sg248
I00
sg311
(lp733
sg309
Nsg24
I0
sg252
I1354
sg314
I1
sg31
g315
sbag279
(g291
g281
Ntp734
Rp735
(dp736
g303
I00
sg304
Nsg250
I1445
sg305
Nsg306
(lp737
sg27
Nsg29
g110
sg313
Nsg23
I466
sg310
Nsg19
g108
sg248
I00
sg311
(lp738
sg309
Nsg252
I1542
sg314
I1
sg31
g315
sbag279
(g291
g281
Ntp739
Rp740
(dp741
g303
I00
sg304
Nsg250
I1653
sg305
Nsg306
(lp742
sg27
Nsg29
g110
sg313
Nsg23
I484
sg310
Nsg19
g108
sg248
I00
sg311
(lp743
sg309
Nsg252
I2230
sg314
I1
sg31
g315
sbag279
(g291
g281
Ntp744
Rp745
(dp746
g303
I00
sg304
Nsg250
I2277
sg305
Nsg306
(lp747
sg27
Nsg29
g110
sg313
Nsg23
I522
sg310
Nsg19
g108
sg248
I00
sg311
(lp748
sg309
Nsg252
I2347
sg314
I1
sg31
g315
sbag279
(g291
g281
Ntp749
Rp750
(dp751
g303
I00
sg304
Nsg250
I2434
sg305
Nsg306
(lp752
sg27
Nsg29
g110
sg313
Nsg23
I550
sg310
Nsg19
g108
sg248
I00
sg311
(lp753
sg309
Nsg252
I2452
sg314
I1
sg31
g315
sbag279
(g291
g281
Ntp754
Rp755
(dp756
g303
I00
sg304
Nsg250
I2523
sg305
Nsg306
(lp757
sg27
Nsg29
g110
sg313
Nsg23
I578
sg310
Nsg19
g108
sg248
I00
sg311
(lp758
sg309
Nsg252
I2630
sg314
I1
sg31
g315
sbag279
(g291
g281
Ntp759
Rp760
(dp761
g303
I00
sg304
Nsg250
I2660
sg305
Nsg306
(lp762
sg27
Nsg29
g110
sg313
Nsg23
I606
sg310
Nsg19
g108
sg248
I00
sg311
(lp763
sg309
Nsg252
I2878
sg314
I1
sg31
g315
sbag279
(g291
g281
Ntp764
Rp765
(dp766
g303
I00
sg304
Nsg250
I2924
sg305
Nsg306
(lp767
sg27
Nsg29
g110
sg313
Nsg23
I634
sg310
Nsg19
g108
sg248
I00
sg311
(lp768
sg309
Nsg252
I3539
sg314
I1
sg31
g315
sbag279
(g291
g281
Ntp769
Rp770
(dp771
g303
I00
sg304
Nsg250
I3622
sg305
Nsg306
(lp772
sg27
Nsg29
g110
sg313
Nsg23
I652
sg310
Nsg19
g108
sg248
I00
sg311
(lp773
sg309
Nsg252
I3776
sg314
I1
sg31
g315
sbag279
(g291
g281
Ntp774
Rp775
(dp776
g303
I00
sg304
Nsg250
I3823
sg305
Nsg306
(lp777
sg27
Nsg29
g110
sg313
Nsg23
I690
sg310
Nsg19
g108
sg248
I00
sg311
(lp778
sg309
Nsg252
I4040
sg314
I1
sg31
g315
sbag279
(g291
g281
Ntp779
Rp780
(dp781
g303
I00
sg304
Nsg250
I4102
sg305
Nsg306
(lp782
sg27
Nsg29
g110
sg313
Nsg23
I718
sg310
Nsg19
g108
sg248
I00
sg311
(lp783
sg309
Nsg252
I4300
sg314
I1
sg31
g315
sbag279
(g291
g281
Ntp784
Rp785
(dp786
g303
I00
sg304
Nsg250
I4724
sg305
Nsg306
(lp787
sg27
Nsg29
g110
sg313
Nsg23
I746
sg310
Nsg19
g108
sg248
I00
sg311
(lp788
sg309
Nsg252
I5002
sg314
I1
sg31
g315
sbag279
(g291
g281
Ntp789
Rp790
(dp791
g303
I00
sg304
Nsg250
I5081
sg305
Nsg306
(lp792
sg27
Nsg29
g110
sg313
Nsg23
I764
sg310
Nsg19
g108
sg248
I00
sg311
(lp793
sg309
Nsg252
I5300
sg314
I1
sg31
g315
sbag279
(g291
g281
Ntp794
Rp795
(dp796
g303
I00
sg304
Nsg250
I5342
sg305
Nsg306
(lp797
sg27
Nsg29
g110
sg313
Nsg23
I802
sg310
Nsg19
g108
sg248
I00
sg311
(lp798
sg309
Nsg252
I5369
sg314
I1
sg31
g315
sbag279
(g291
g281
Ntp799
Rp800
(dp801
g303
I00
sg304
Nsg250
I5412
sg305
Nsg306
(lp802
sg27
Nsg29
g110
sg313
Nsg23
I830
sg310
Nsg19
g108
sg248
I00
sg311
(lp803
sg309
Nsg252
I6496
sg314
I1
sg31
g315
sbag279
(g291
g281
Ntp804
Rp805
(dp806
g303
I00
sg304
Nsg250
I6566
sg305
Nsg306
(lp807
sg27
Nsg29
g110
sg313
Nsg23
I894
sg310
Nsg19
g108
sg248
I00
sg311
(lp808
sg309
Nsg252
I6606
sg314
I1
sg31
g315
sbag279
(g291
g281
Ntp809
Rp810
(dp811
g303
I00
sg304
Nsg250
I6694
sg305
Nsg306
(lp812
sg27
Nsg29
g110
sg313
Nsg23
I916
sg310
Nsg19
g108
sg248
I00
sg311
(lp813
sg309
Nsg252
I8492
sg314
I1
sg31
g315
sbag279
(g291
g281
Ntp814
Rp815
(dp816
g303
I00
sg18
I4428
sg304
Nsg250
I39
sg305
Nsg306
(lp817
sg27
Nsg29
g118
sg313
Nsg23
I972
sg310
Nsg19
g116
sg248
I00
sg311
(lp818
sg309
Nsg24
I0
sg252
I4385
sg314
I1
sg31
g315
sbag279
(g291
g281
Ntp819
Rp820
(dp821
g303
I00
sg18
I3414
sg304
Nsg250
I84
sg305
Nsg306
(lp822
sg27
Nsg29
g126
sg313
Nsg23
I1306
sg310
Nsg19
g124
sg248
I00
sg311
(lp823
sg309
Nsg24
I0
sg252
I3392
sg314
I1
sg31
g315
sbag279
(g291
g281
Ntp824
Rp825
(dp826
g303
I00
sg304
Nsg250
I126
sg305
Nsg306
(lp827
sg27
Nsg29
g134
sg313
Nsg23
I2406
sg310
Nsg19
g132
sg248
I00
sg311
(lp828
sg309
Nsg252
I941
sg314
I1
sg31
g315
sbag279
(g291
g281
Ntp829
Rp830
(dp831
g303
I00
sg304
Nsg250
I1010
sg305
Nsg306
(lp832
sg27
Nsg29
g134
sg313
Nsg23
I2476
sg310
Nsg19
g132
sg248
I00
sg311
(lp833
sg309
Nsg252
I2595
sg314
I1
sg31
g315
sbag279
(g291
g281
Ntp834
Rp835
(dp836
g303
I00
sg304
Nsg250
I2625
sg305
Nsg306
(lp837
sg27
Nsg29
g134
sg313
Nsg23
I2872
sg310
Nsg19
g132
sg248
I00
sg311
(lp838
sg309
Nsg252
I2670
sg314
I1
sg31
g315
sbag279
(g291
g281
Ntp839
Rp840
(dp841
g303
I00
sg304
Nsg250
I2693
sg305
Nsg306
(lp842
sg27
Nsg29
g134
sg313
Nsg23
I2942
sg310
Nsg19
g132
sg248
I00
sg311
(lp843
sg309
Nsg252
I3299
sg314
I1
sg31
g315
sbag279
(g291
g281
Ntp844
Rp845
(dp846
g303
I00
sg304
Nsg250
I3332
sg305
Nsg306
(lp847
sg27
Nsg29
g134
sg313
Nsg23
I2592
sg310
Nsg19
g132
sg248
I00
sg311
(lp848
sg309
Nsg252
I3462
sg314
I1
sg31
g315
sbag279
(g291
g281
Ntp849
Rp850
(dp851
g303
I00
sg304
Nsg250
I3511
sg305
Nsg306
(lp852
sg27
Nsg29
g134
sg313
Nsg23
I2662
sg310
Nsg19
g132
sg248
I00
sg311
(lp853
sg309
Nsg252
I3564
sg314
I1
sg31
g315
sbag279
(g291
g281
Ntp854
Rp855
(dp856
g303
I00
sg304
Nsg250
I3619
sg305
Nsg306
(lp857
sg27
Nsg29
g134
sg313
Nsg23
I2732
sg310
Nsg19
g132
sg248
I00
sg311
(lp858
sg309
Nsg252
I3772
sg314
I1
sg31
g315
sbag279
(g291
g281
Ntp859
Rp860
(dp861
g303
I00
sg304
Nsg250
I3856
sg305
Nsg306
(lp862
sg27
Nsg29
g134
sg313
Nsg23
I3071
sg310
Nsg19
g132
sg248
I00
sg311
(lp863
sg309
Nsg252
I4877
sg314
I1
sg31
g315
sbag279
(g291
g281
Ntp864
Rp865
(dp866
g303
I00
sg304
Nsg250
I4870
sg305
Nsg306
(lp867
sg27
Nsg29
g134
sg313
Nsg23
I2802
sg310
Nsg19
g132
sg248
I00
sg311
(lp868
sg309
Nsg252
I5213
sg314
I1
sg31
g315
sbag279
(g291
g281
Ntp869
Rp870
(dp871
g303
I00
sg304
Nsg250
I5312
sg305
Nsg306
(lp872
sg27
Nsg29
g134
sg313
Nsg23
I3141
sg310
Nsg19
g132
sg248
I00
sg311
(lp873
sg309
Nsg252
I11462
sg314
I1
sg31
g315
sbag279
(g291
g281
Ntp874
Rp875
(dp876
g303
I00
sg304
Nsg250
I11497
sg305
Nsg306
(lp877
sg27
Nsg29
g134
sg313
Nsg23
I3211
sg310
Nsg19
g132
sg248
I00
sg311
(lp878
sg309
Nsg252
I12003
sg314
I1
sg31
g315
sbag279
(g291
g281
Ntp879
Rp880
(dp881
g303
I00
sg304
Nsg250
I55
sg305
Nsg306
(lp882
sg27
Nsg29
g142
sg313
Nsg23
I3011
sg310
Nsg19
g140
sg248
I00
sg311
(lp883
sg309
Nsg252
I1512
sg314
I1
sg31
g315
sbag279
(g291
g281
Ntp884
Rp885
(dp886
g303
I00
sg304
Nsg250
I1896
sg305
Nsg306
(lp887
sg27
Nsg29
g142
sg313
Nsg23
I4071
sg310
Nsg19
g140
sg248
I00
sg311
(lp888
sg309
Nsg252
I2451
sg314
I1
sg31
g315
sbag279
(g291
g281
Ntp889
Rp890
(dp891
g303
I00
sg304
Nsg250
I2497
sg305
Nsg306
(lp892
sg27
Nsg29
g142
sg313
Nsg23
I4163
sg310
Nsg19
g140
sg248
I00
sg311
(lp893
sg309
Nsg252
I2986
sg314
I1
sg31
g315
sbag279
(g291
g281
Ntp894
Rp895
(dp896
g303
I00
sg304
Nsg250
I3039
sg305
Nsg306
(lp897
sg27
Nsg29
g142
sg313
Nsg23
I4490
sg310
Nsg19
g140
sg248
I00
sg311
(lp898
sg309
Nsg252
I3104
sg314
I1
sg31
g315
sbag279
(g291
g281
Ntp899
Rp900
(dp901
g303
I00
sg18
I7624
sg304
Nsg250
I7375
sg305
Nsg306
(lp902
sg27
Nsg29
g159
sg313
Nsg23
I4384
sg310
Nsg19
g157
sg248
I00
sg311
(lp903
sg309
Nsg24
I7375
sg252
I7624
sg314
I3
sg31
g315
sbasg316
I-99
sg317
I0
sg318
I01
sg31
I1
sg23
I5
sbag279
(g280
g281
Ntp904
Rp905
(dp906
g285
F1.0
sg286
I0
sg287
I00
sg288
I25
sg289
(lp907
g279
(g291
g281
Ntp908
Rp909
(dp910
g303
I01
sg304
Nsg250
I0
sg305
Nsg306
(lp911
sg27
Nsg313
Nsg23
I4605
sg310
Nsg248
I00
sg311
(lp912
sg309
Nsg252
I696
sg31
g315
sbag279
(g291
g281
Ntp913
Rp914
(dp915
g303
I00
sg18
I7624
sg304
Nsg250
I7375
sg305
Nsg306
(lp916
sg27
Nsg29
g165
sg313
Nsg23
I1900
sg310
Nsg19
g163
sg248
I00
sg311
(lp917
sg309
Nsg24
I7375
sg252
I7624
sg314
I3
sg31
g315
sbag279
(g291
g281
Ntp918
Rp919
(dp920
g303
I01
sg304
Nsg250
I0
sg305
Nsg306
(lp921
sg27
Nsg313
Nsg23
I4604
sg310
Nsg248
I00
sg311
(lp922
sg309
Nsg252
I14200
sg31
g315
sbag279
(g291
g281
Ntp923
Rp924
(dp925
g303
I00
sg18
I7624
sg304
Nsg250
I7375
sg305
Nsg306
(lp926
sg27
Nsg29
g171
sg313
Nsg23
I1120
sg310
Nsg19
g169
sg248
I00
sg311
(lp927
sg309
Nsg24
I7375
sg252
I7624
sg314
I3
sg31
g315
sbag279
(g291
g281
Ntp928
Rp929
(dp930
g303
I01
sg304
Nsg250
I0
sg305
Nsg306
(lp931
sg27
Nsg313
Nsg23
I4603
sg310
Nsg248
I00
sg311
(lp932
sg309
Nsg252
I5908
sg31
g315
sbag279
(g291
g281
Ntp933
Rp934
(dp935
g303
I00
sg18
I7624
sg304
Nsg250
I7375
sg305
Nsg306
(lp936
sg27
Nsg29
g177
sg313
Nsg23
I1261
sg310
Nsg19
g175
sg248
I00
sg311
(lp937
sg309
Nsg24
I7375
sg252
I7624
sg314
I3
sg31
g315
sbasg316
I-99
sg317
I0
sg318
I00
sg31
I1
sg23
I6
sbag279
(g280
g281
Ntp938
Rp939
(dp940
g285
F1.0
sg286
I0
sg287
I00
sg288
I25
sg289
(lp941
sg316
I-99
sg317
I0
sg318
I00
sg31
I1
sg23
I7
sbag279
(g280
g281
Ntp942
Rp943
(dp944
g285
F1.0
sg286
I0
sg287
I00
sg288
I25
sg289
(lp945
sg316
I-99
sg317
I0
sg318
I00
sg31
I1
sg23
I8
sbag279
(g280
g281
Ntp946
Rp947
(dp948
g285
F1.0
sg286
I0
sg287
I00
sg288
I25
sg289
(lp949
sg316
I-99
sg317
I0
sg318
I00
sg31
I1
sg23
I9
sbag279
(g280
g281
Ntp950
Rp951
(dp952
g285
F1.0
sg286
I0
sg287
I00
sg288
I50
sg289
(lp953
g279
(g291
g281
Ntp954
Rp955
(dp956
g303
I01
sg310
Nsg248
I00
sg311
(lp957
sg313
Nsg304
Nsg309
Nsg305
Nsg306
(lp958
sg252
I39546
sg250
I0
sg31
g315
sg23
I4740
sbasg316
I-99
sg317
I0
sg318
I01
sg31
I1
sg23
I10
sbasS'master_audio_gain'
p959
F1.0
sS'next_id'
p960
I4741
sg19
Vsequence_1
p961
sS'first_video_index'
p962
I5
sg311
(lp963
sS'proxyclips'
p964
(dp965
sg25
NsS'rendered_versions'
p966
(dp967
sS'seq_len'
p968
I39547
sbasS'profile_desc'
p969
S'1024x576 16:9 PAL'
p970
sS'project_properties'
p971
(dp972
S'P_PROP_LAST_RENDER_SELECTIONS'
p973
(dp974
S'quality_option_index'
p975
I10
sS'presets_index'
p976
I0
sS'markinmarkout'
p977
(I-1
I-1
tp978
sS'name'
p979
S'movie'
p980
sS'use_project_profile'
p981
I01
sS'render_args'
p982
NsS'render_profile'
p983
I0
sS'encoding_option_index'
p984
I0
sS'range'
p985
I0
sS'use_user_encodings'
p986
I0
sS'folder'
p987
S'/home/lorry'
p988
sssS'next_media_file_id'
p989
I25
sS'SAVEFILE_VERSION'
p990
I5
sg19
Vpic_vic20.flb
p991
sS'media_log'
p992
(lp993
sS'update_media_lengths_on_load'
p994
I00
sS'next_seq_number'
p995
I2
sS'c_seq_index'
p996
I0
sS'events'
p997
(lp998
(iprojectdata
ProjectEvent
p999
(dp1000
S'timestamp'
p1001
cdatetime
datetime
p1002
(S'\x07\xe4\x01\x1d\x0f\x14\x1e\x03\xca\xcc'
p1003
tp1004
Rp1005
sS'data'
p1006
S'/home/lorry/data/video/techtinkering/2020/position_independent_code_vic_20/pic_vic20.flb'
p1007
sS'event_type'
p1008
I1
sba(iprojectdata
ProjectEvent
p1009
(dp1010
g1001
g1002
(S'\x07\xe4\x01\x1d\x0f\x19\x13\x0c!='
p1011
tp1012
Rp1013
sg1006
g1007
sg1008
I2
sba(iprojectdata
ProjectEvent
p1014
(dp1015
g1001
g1002
(S'\x07\xe4\x01\x1d\x0f&(\x03\nt'
p1016
tp1017
Rp1018
sg1006
g1007
sg1008
I2
sba(iprojectdata
ProjectEvent
p1019
(dp1020
g1001
g1002
(S'\x07\xe4\x01\x1d\x10\x00*\x0b\xd5\xd1'
p1021
tp1022
Rp1023
sg1006
g1007
sg1008
I2
sba(iprojectdata
ProjectEvent
p1024
(dp1025
g1001
g1002
(S'\x07\xe4\x01\x1d\x10\x00.\x07\x8eH'
p1026
tp1027
Rp1028
sg1006
g1007
sg1008
I2
sba(iprojectdata
ProjectEvent
p1029
(dp1030
g1001
g1002
(S'\x07\xe4\x01\x1d\x16\x04\x01\n\xe3Z'
p1031
tp1032
Rp1033
sg1006
g1007
sg1008
I2
sba(iprojectdata
ProjectEvent
p1034
(dp1035
g1001
g1002
(S'\x07\xe4\x01\x1e\x07\x0e\x0e\n\xf3\xeb'
p1036
tp1037
Rp1038
sg1006
g1007
sg1008
I2
sbasS'bins'
p1039
(lp1040
g179
asb.